(dp0
S'\xe4\xba\xba\xe5\xbd\xa2\xe7\x94\xba'
p1
(lp2
(dp3
S'line'
p4
S'\xe6\x97\xa5\xe6\xaf\x94\xe8\xb0\xb7\xe7\xb7\x9a'
p5
sS'name'
p6
S'\xe4\xb8\xad\xe7\x9b\xae\xe9\xbb\x92'
p7
sa(dp8
g4
g5
sg6
S'\xe6\x81\xb5\xe6\xaf\x94\xe5\xaf\xbf'
p9
sa(dp10
g4
g5
sg6
S'\xe5\xba\x83\xe5\xb0\xbe'
p11
sa(dp12
g4
g5
sg6
S'\xe5\x85\xad\xe6\x9c\xac\xe6\x9c\xa8'
p13
sa(dp14
g4
g5
sg6
S'\xe7\xa5\x9e\xe8\xb0\xb7\xe7\x94\xba'
p15
sa(dp16
g4
g5
sg6
S'\xe9\x9c\x9e\xe3\x82\xb1\xe9\x96\xa2'
p17
sa(dp18
g4
g5
sg6
S'\xe6\x97\xa5\xe6\xaf\x94\xe8\xb0\xb7'
p19
sa(dp20
g4
g5
sg6
S'\xe9\x8a\x80\xe5\xba\xa7'
p21
sa(dp22
g4
g5
sg6
S'\xe6\x9d\xb1\xe9\x8a\x80\xe5\xba\xa7'
p23
sa(dp24
g4
g5
sg6
S'\xe7\xaf\x89\xe5\x9c\xb0'
p25
sa(dp26
g4
g5
sg6
S'\xe5\x85\xab\xe4\xb8\x81\xe5\xa0\x80'
p27
sa(dp28
g4
g5
sg6
S'\xe8\x8c\x85\xe5\xa0\xb4\xe7\x94\xba'
p29
sa(dp30
g4
g5
sg6
g1
sa(dp31
g4
g5
sg6
S'\xe5\xb0\x8f\xe4\xbc\x9d\xe9\xa6\xac\xe7\x94\xba'
p32
sa(dp33
g4
g5
sg6
S'\xe7\xa7\x8b\xe8\x91\x89\xe5\x8e\x9f'
p34
sa(dp35
g4
g5
sg6
S'\xe4\xbb\xb2\xe5\xbe\xa1\xe5\xbe\x92\xe7\x94\xba'
p36
sa(dp37
g4
g5
sg6
S'\xe4\xb8\x8a\xe9\x87\x8e'
p38
sa(dp39
g4
g5
sg6
S'\xe5\x85\xa5\xe8\xb0\xb7'
p40
sa(dp41
g4
g5
sg6
S'\xe4\xb8\x89\xe3\x83\x8e\xe8\xbc\xaa'
p42
sa(dp43
g4
g5
sg6
S'\xe5\x8d\x97\xe5\x8d\x83\xe4\xbd\x8f'
p44
sa(dp45
g4
g5
sg6
S'\xe5\x8c\x97\xe5\x8d\x83\xe4\xbd\x8f'
p46
sasg15
(lp47
(dp48
g4
g5
sg6
g7
sa(dp49
g4
g5
sg6
g9
sa(dp50
g4
g5
sg6
g11
sa(dp51
g4
g5
sg6
g13
sa(dp52
g4
g5
sg6
g15
sa(dp53
g4
g5
sg6
g17
sa(dp54
g4
g5
sg6
g19
sa(dp55
g4
g5
sg6
g21
sa(dp56
g4
g5
sg6
g23
sa(dp57
g4
g5
sg6
g25
sa(dp58
g4
g5
sg6
g27
sa(dp59
g4
g5
sg6
g29
sa(dp60
g4
g5
sg6
g1
sa(dp61
g4
g5
sg6
g32
sa(dp62
g4
g5
sg6
g34
sa(dp63
g4
g5
sg6
g36
sa(dp64
g4
g5
sg6
g38
sa(dp65
g4
g5
sg6
g40
sa(dp66
g4
g5
sg6
g42
sa(dp67
g4
g5
sg6
g44
sa(dp68
g4
g5
sg6
g46
sasS'\xe7\x9b\xae\xe9\xbb\x92'
p69
(lp70
(dp71
g4
S'\xe5\xb1\xb1\xe6\x89\x8b\xe7\xb7\x9a'
p72
sg6
S'\xe5\x93\x81\xe5\xb7\x9d'
p73
sa(dp74
g4
g72
sg6
S'\xe5\xa4\xa7\xe5\xb4\x8e'
p75
sa(dp76
g4
g72
sg6
S'\xe4\xba\x94\xe5\x8f\x8d\xe7\x94\xb0'
p77
sa(dp78
g4
g72
sg6
g69
sa(dp79
g4
g72
sg6
g9
sa(dp80
g4
g72
sg6
S'\xe6\xb8\x8b\xe8\xb0\xb7'
p81
sa(dp82
g4
g72
sg6
S'\xe5\x8e\x9f\xe5\xae\xbf'
p83
sa(dp84
g4
g72
sg6
S'\xe4\xbb\xa3\xe3\x80\x85\xe6\x9c\xa8'
p85
sa(dp86
g4
g72
sg6
S'\xe6\x96\xb0\xe5\xae\xbf'
p87
sa(dp88
g4
g72
sg6
S'\xe6\x96\xb0\xe5\xa4\xa7\xe4\xb9\x85\xe4\xbf\x9d'
p89
sa(dp90
g4
g72
sg6
S'\xe9\xab\x98\xe7\x94\xb0\xe9\xa6\xac\xe5\xa0\xb4'
p91
sa(dp92
g4
g72
sg6
S'\xe7\x9b\xae\xe7\x99\xbd'
p93
sa(dp94
g4
g72
sg6
S'\xe6\xb1\xa0\xe8\xa2\x8b'
p95
sa(dp96
g4
g72
sg6
S'\xe5\xa4\xa7\xe5\xa1\x9a'
p97
sa(dp98
g4
g72
sg6
S'\xe5\xb7\xa3\xe9\xb4\xa8'
p99
sa(dp100
g4
g72
sg6
S'\xe9\xa7\x92\xe8\xb6\x8a'
p101
sa(dp102
g4
g72
sg6
S'\xe7\x94\xb0\xe7\xab\xaf\xe9\xa7\x85'
p103
sa(dp104
g4
g72
sg6
S'\xe8\xa5\xbf\xe6\x97\xa5\xe6\x9a\xae\xe9\x87\x8c'
p105
sa(dp106
g4
g72
sg6
S'\xe6\x97\xa5\xe6\x9a\xae\xe9\x87\x8c'
p107
sa(dp108
g4
g72
sg6
S'\xe9\xb6\xaf\xe8\xb0\xb7'
p109
sa(dp110
g4
g72
sg6
g38
sa(dp111
g4
g72
sg6
S'\xe5\xbe\xa1\xe5\xbe\x92\xe7\x94\xba'
p112
sa(dp113
g4
g72
sg6
g34
sa(dp114
g4
g72
sg6
S'\xe7\xa5\x9e\xe7\x94\xb0'
p115
sa(dp116
g4
g72
sg6
S'\xe6\x9d\xb1\xe4\xba\xac'
p117
sa(dp118
g4
g72
sg6
S'\xe6\x9c\x89\xe6\xa5\xbd\xe7\x94\xba'
p119
sa(dp120
g4
g72
sg6
S'\xe6\x96\xb0\xe6\xa9\x8b'
p121
sa(dp122
g4
g72
sg6
S'\xe6\xb5\x9c\xe6\x9d\xbe\xe7\x94\xba'
p123
sa(dp124
g4
g72
sg6
S'\xe7\x94\xb0\xe7\x94\xba'
p125
sa(dp126
g4
S'\xe7\x9b\xae\xe9\xbb\x92\xe7\xb7\x9a'
p127
sg6
S'\xe6\x97\xa5\xe5\x90\x89'
p128
sa(dp129
g4
g127
sg6
S'\xe5\x85\x83\xe4\xbd\x8f\xe5\x90\x89'
p130
sa(dp131
g4
g127
sg6
S'\xe6\xad\xa6\xe8\x94\xb5\xe5\xb0\x8f\xe6\x9d\x89'
p132
sa(dp133
g4
g127
sg6
S'\xe6\x96\xb0\xe4\xb8\xb8\xe5\xad\x90'
p134
sa(dp135
g4
g127
sg6
S'\xe5\xa4\x9a\xe6\x91\xa9\xe5\xb7\x9d'
p136
sa(dp137
g4
g127
sg6
S'\xe7\x94\xb0\xe5\x9c\x92\xe8\xaa\xbf\xe5\xb8\x83'
p138
sa(dp139
g4
g127
sg6
S'\xe5\xa5\xa5\xe6\xb2\xa2'
p140
sa(dp141
g4
g127
sg6
S'\xe5\xa4\xa7\xe5\xb2\xa1\xe5\xb1\xb1'
p142
sa(dp143
g4
g127
sg6
S'\xe6\xb4\x97\xe8\xb6\xb3'
p144
sa(dp145
g4
g127
sg6
S'\xe8\xa5\xbf\xe5\xb0\x8f\xe5\xb1\xb1'
p146
sa(dp147
g4
g127
sg6
S'\xe6\xad\xa6\xe8\x94\xb5\xe5\xb0\x8f\xe5\xb1\xb1'
p148
sa(dp149
g4
g127
sg6
S'\xe4\xb8\x8d\xe5\x8b\x95\xe5\x89\x8d'
p150
sa(dp151
g4
g127
sg6
g69
sasg132
(lp152
(dp153
g4
S'\xe6\x9d\xb1\xe6\xa8\xaa\xe7\xb7\x9a'
p154
sg6
S'\xe6\xa8\xaa\xe6\xb5\x9c'
p155
sa(dp156
g4
g154
sg6
S'\xe5\x8f\x8d\xe7\x94\xba'
p157
sa(dp158
g4
g154
sg6
S'\xe6\x9d\xb1\xe7\x99\xbd\xe6\xa5\xbd'
p159
sa(dp160
g4
g154
sg6
S'\xe7\x99\xbd\xe6\xa5\xbd'
p161
sa(dp162
g4
g154
sg6
S'\xe5\xa6\x99\xe8\x93\xae\xe5\xaf\xba'
p163
sa(dp164
g4
g154
sg6
S'\xe8\x8f\x8a\xe5\x90\x8d'
p165
sa(dp166
g4
g154
sg6
S'\xe5\xa4\xa7\xe5\x80\x89\xe5\xb1\xb1'
p167
sa(dp168
g4
g154
sg6
S'\xe7\xb6\xb1\xe5\xb3\xb6'
p169
sa(dp170
g4
g154
sg6
g128
sa(dp171
g4
g154
sg6
g130
sa(dp172
g4
g154
sg6
g132
sa(dp173
g4
g154
sg6
g134
sa(dp174
g4
g154
sg6
g136
sa(dp175
g4
g154
sg6
g138
sa(dp176
g4
g154
sg6
S'\xe8\x87\xaa\xe7\x94\xb1\xe3\x81\x8c\xe4\xb8\x98'
p177
sa(dp178
g4
g154
sg6
S'\xe9\x83\xbd\xe7\xab\x8b\xe5\xa4\xa7\xe5\xad\xa6'
p179
sa(dp180
g4
g154
sg6
S'\xe5\xad\xa6\xe8\x8a\xb8\xe5\xa4\xa7\xe5\xad\xa6'
p181
sa(dp182
g4
g154
sg6
S'\xe7\xa5\x90\xe5\xa4\xa9\xe5\xaf\xba'
p183
sa(dp184
g4
g154
sg6
g7
sa(dp185
g4
g154
sg6
S'\xe4\xbb\xa3\xe5\xae\x98\xe5\xb1\xb1'
p186
sa(dp187
g4
g154
sg6
g81
sa(dp188
g4
g127
sg6
g128
sa(dp189
g4
g127
sg6
g130
sa(dp190
g4
g127
sg6
g132
sa(dp191
g4
g127
sg6
g134
sa(dp192
g4
g127
sg6
g136
sa(dp193
g4
g127
sg6
g138
sa(dp194
g4
g127
sg6
g140
sa(dp195
g4
g127
sg6
g142
sa(dp196
g4
g127
sg6
g144
sa(dp197
g4
g127
sg6
g146
sa(dp198
g4
g127
sg6
g148
sa(dp199
g4
g127
sg6
g150
sa(dp200
g4
g127
sg6
g69
sasg115
(lp201
(dp202
g4
g72
sg6
g73
sa(dp203
g4
g72
sg6
g75
sa(dp204
g4
g72
sg6
g77
sa(dp205
g4
g72
sg6
g69
sa(dp206
g4
g72
sg6
g9
sa(dp207
g4
g72
sg6
g81
sa(dp208
g4
g72
sg6
g83
sa(dp209
g4
g72
sg6
g85
sa(dp210
g4
g72
sg6
g87
sa(dp211
g4
g72
sg6
g89
sa(dp212
g4
g72
sg6
g91
sa(dp213
g4
g72
sg6
g93
sa(dp214
g4
g72
sg6
g95
sa(dp215
g4
g72
sg6
g97
sa(dp216
g4
g72
sg6
g99
sa(dp217
g4
g72
sg6
g101
sa(dp218
g4
g72
sg6
g103
sa(dp219
g4
g72
sg6
g105
sa(dp220
g4
g72
sg6
g107
sa(dp221
g4
g72
sg6
g109
sa(dp222
g4
g72
sg6
g38
sa(dp223
g4
g72
sg6
g112
sa(dp224
g4
g72
sg6
g34
sa(dp225
g4
g72
sg6
g115
sa(dp226
g4
g72
sg6
g117
sa(dp227
g4
g72
sg6
g119
sa(dp228
g4
g72
sg6
g121
sa(dp229
g4
g72
sg6
g123
sa(dp230
g4
g72
sg6
g125
sasS'\xe6\xb4\x97\xe8\xb6\xb3\xe6\xb1\xa0'
p231
(lp232
(dp233
g4
S'\xe6\xb1\xa0\xe4\xb8\x8a\xe7\xb7\x9a'
p234
sg6
S'\xe8\x92\xb2\xe7\x94\xb0'
p235
sa(dp236
g4
g234
sg6
S'\xe8\x93\xae\xe6\xb2\xbc'
p237
sa(dp238
g4
g234
sg6
S'\xe6\xb1\xa0\xe4\xb8\x8a'
p239
sa(dp240
g4
g234
sg6
S'\xe5\x8d\x83\xe9\xb3\xa5\xe7\x94\xba'
p241
sa(dp242
g4
g234
sg6
S'\xe4\xb9\x85\xe3\x81\x8c\xe5\x8e\x9f'
p243
sa(dp244
g4
g234
sg6
S'\xe5\xbe\xa1\xe5\xb6\xbd\xe5\xb1\xb1'
p245
sa(dp246
g4
g234
sg6
S'\xe9\x9b\xaa\xe3\x81\x8c\xe8\xb0\xb7\xe5\xa4\xa7\xe5\xa1\x9a'
p247
sa(dp248
g4
g234
sg6
S'\xe7\x9f\xb3\xe5\xb7\x9d\xe5\x8f\xb0'
p249
sa(dp250
g4
g234
sg6
g231
sa(dp251
g4
g234
sg6
S'\xe9\x95\xb7\xe5\x8e\x9f'
p252
sa(dp253
g4
g234
sg6
S'\xe6\x97\x97\xe3\x81\xae\xe5\x8f\xb0'
p254
sa(dp255
g4
g234
sg6
S'\xe8\x8d\x8f\xe5\x8e\x9f\xe4\xb8\xad\xe5\xbb\xb6'
p256
sa(dp257
g4
g234
sg6
S'\xe6\x88\xb8\xe8\xb6\x8a\xe9\x8a\x80\xe5\xba\xa7'
p258
sa(dp259
g4
g234
sg6
S'\xe5\xa4\xa7\xe5\xb4\x8e\xe5\xba\x83\xe5\xb0\x8f\xe8\xb7\xaf'
p260
sa(dp261
g4
g234
sg6
g77
sasg155
(lp262
(dp263
g4
g154
sg6
g155
sa(dp264
g4
g154
sg6
g157
sa(dp265
g4
g154
sg6
g159
sa(dp266
g4
g154
sg6
g161
sa(dp267
g4
g154
sg6
g163
sa(dp268
g4
g154
sg6
g165
sa(dp269
g4
g154
sg6
g167
sa(dp270
g4
g154
sg6
g169
sa(dp271
g4
g154
sg6
g128
sa(dp272
g4
g154
sg6
g130
sa(dp273
g4
g154
sg6
g132
sa(dp274
g4
g154
sg6
g134
sa(dp275
g4
g154
sg6
g136
sa(dp276
g4
g154
sg6
g138
sa(dp277
g4
g154
sg6
g177
sa(dp278
g4
g154
sg6
g179
sa(dp279
g4
g154
sg6
g181
sa(dp280
g4
g154
sg6
g183
sa(dp281
g4
g154
sg6
g7
sa(dp282
g4
g154
sg6
g186
sa(dp283
g4
g154
sg6
g81
sasg103
(lp284
(dp285
g4
g72
sg6
g73
sa(dp286
g4
g72
sg6
g75
sa(dp287
g4
g72
sg6
g77
sa(dp288
g4
g72
sg6
g69
sa(dp289
g4
g72
sg6
g9
sa(dp290
g4
g72
sg6
g81
sa(dp291
g4
g72
sg6
g83
sa(dp292
g4
g72
sg6
g85
sa(dp293
g4
g72
sg6
g87
sa(dp294
g4
g72
sg6
g89
sa(dp295
g4
g72
sg6
g91
sa(dp296
g4
g72
sg6
g93
sa(dp297
g4
g72
sg6
g95
sa(dp298
g4
g72
sg6
g97
sa(dp299
g4
g72
sg6
g99
sa(dp300
g4
g72
sg6
g101
sa(dp301
g4
g72
sg6
g103
sa(dp302
g4
g72
sg6
g105
sa(dp303
g4
g72
sg6
g107
sa(dp304
g4
g72
sg6
g109
sa(dp305
g4
g72
sg6
g38
sa(dp306
g4
g72
sg6
g112
sa(dp307
g4
g72
sg6
g34
sa(dp308
g4
g72
sg6
g115
sa(dp309
g4
g72
sg6
g117
sa(dp310
g4
g72
sg6
g119
sa(dp311
g4
g72
sg6
g121
sa(dp312
g4
g72
sg6
g123
sa(dp313
g4
g72
sg6
g125
sasS'\xe5\xb0\xbe\xe5\xb1\xb1\xe5\x8f\xb0'
p314
(lp315
(dp316
g4
S'\xe5\xa4\xa7\xe4\xba\x95\xe7\x94\xba\xe7\xb7\x9a'
p317
sg6
S'\xe4\xba\x8c\xe5\xad\x90\xe7\x8e\x89\xe5\xb7\x9d'
p318
sa(dp319
g4
g317
sg6
S'\xe4\xb8\x8a\xe9\x87\x8e\xe6\xaf\x9b'
p320
sa(dp321
g4
g317
sg6
S'\xe7\xad\x89\xe3\x80\x85\xe5\x8a\x9b'
p322
sa(dp323
g4
g317
sg6
g314
sa(dp324
g4
g317
sg6
S'\xe4\xb9\x9d\xe5\x93\x81\xe4\xbb\x8f'
p325
sa(dp326
g4
g317
sg6
g177
sa(dp327
g4
g317
sg6
S'\xe7\xb7\x91\xe3\x81\x8c\xe4\xb8\x98'
p328
sa(dp329
g4
g317
sg6
g142
sa(dp330
g4
g317
sg6
S'\xe5\x8c\x97\xe5\x8d\x83\xe6\x9d\x9f'
p331
sa(dp332
g4
g317
sg6
g254
sa(dp333
g4
g317
sg6
S'\xe8\x8d\x8f\xe5\x8e\x9f\xe7\x94\xba'
p334
sa(dp335
g4
g317
sg6
S'\xe4\xb8\xad\xe5\xbb\xb6'
p336
sa(dp337
g4
g317
sg6
S'\xe6\x88\xb8\xe8\xb6\x8a\xe5\x85\xac\xe5\x9c\x92'
p338
sa(dp339
g4
g317
sg6
S'\xe4\xb8\x8b\xe7\xa5\x9e\xe6\x98\x8e'
p340
sa(dp341
g4
g317
sg6
S'\xe5\xa4\xa7\xe4\xba\x95\xe7\x94\xba'
p342
sasg328
(lp343
(dp344
g4
g317
sg6
g318
sa(dp345
g4
g317
sg6
g320
sa(dp346
g4
g317
sg6
g322
sa(dp347
g4
g317
sg6
g314
sa(dp348
g4
g317
sg6
g325
sa(dp349
g4
g317
sg6
g177
sa(dp350
g4
g317
sg6
g328
sa(dp351
g4
g317
sg6
g142
sa(dp352
g4
g317
sg6
g331
sa(dp353
g4
g317
sg6
g254
sa(dp354
g4
g317
sg6
g334
sa(dp355
g4
g317
sg6
g336
sa(dp356
g4
g317
sg6
g338
sa(dp357
g4
g317
sg6
g340
sa(dp358
g4
g317
sg6
g342
sasg256
(lp359
(dp360
g4
g234
sg6
g235
sa(dp361
g4
g234
sg6
g237
sa(dp362
g4
g234
sg6
g239
sa(dp363
g4
g234
sg6
g241
sa(dp364
g4
g234
sg6
g243
sa(dp365
g4
g234
sg6
g245
sa(dp366
g4
g234
sg6
g247
sa(dp367
g4
g234
sg6
g249
sa(dp368
g4
g234
sg6
g231
sa(dp369
g4
g234
sg6
g252
sa(dp370
g4
g234
sg6
g254
sa(dp371
g4
g234
sg6
g256
sa(dp372
g4
g234
sg6
g258
sa(dp373
g4
g234
sg6
g260
sa(dp374
g4
g234
sg6
g77
sasg121
(lp375
(dp376
g4
g72
sg6
g73
sa(dp377
g4
g72
sg6
g75
sa(dp378
g4
g72
sg6
g77
sa(dp379
g4
g72
sg6
g69
sa(dp380
g4
g72
sg6
g9
sa(dp381
g4
g72
sg6
g81
sa(dp382
g4
g72
sg6
g83
sa(dp383
g4
g72
sg6
g85
sa(dp384
g4
g72
sg6
g87
sa(dp385
g4
g72
sg6
g89
sa(dp386
g4
g72
sg6
g91
sa(dp387
g4
g72
sg6
g93
sa(dp388
g4
g72
sg6
g95
sa(dp389
g4
g72
sg6
g97
sa(dp390
g4
g72
sg6
g99
sa(dp391
g4
g72
sg6
g101
sa(dp392
g4
g72
sg6
g103
sa(dp393
g4
g72
sg6
g105
sa(dp394
g4
g72
sg6
g107
sa(dp395
g4
g72
sg6
g109
sa(dp396
g4
g72
sg6
g38
sa(dp397
g4
g72
sg6
g112
sa(dp398
g4
g72
sg6
g34
sa(dp399
g4
g72
sg6
g115
sa(dp400
g4
g72
sg6
g117
sa(dp401
g4
g72
sg6
g119
sa(dp402
g4
g72
sg6
g121
sa(dp403
g4
g72
sg6
g123
sa(dp404
g4
g72
sg6
g125
sasg146
(lp405
(dp406
g4
g127
sg6
g128
sa(dp407
g4
g127
sg6
g130
sa(dp408
g4
g127
sg6
g132
sa(dp409
g4
g127
sg6
g134
sa(dp410
g4
g127
sg6
g136
sa(dp411
g4
g127
sg6
g138
sa(dp412
g4
g127
sg6
g140
sa(dp413
g4
g127
sg6
g142
sa(dp414
g4
g127
sg6
g144
sa(dp415
g4
g127
sg6
g146
sa(dp416
g4
g127
sg6
g148
sa(dp417
g4
g127
sg6
g150
sa(dp418
g4
g127
sg6
g69
sasg247
(lp419
(dp420
g4
g234
sg6
g235
sa(dp421
g4
g234
sg6
g237
sa(dp422
g4
g234
sg6
g239
sa(dp423
g4
g234
sg6
g241
sa(dp424
g4
g234
sg6
g243
sa(dp425
g4
g234
sg6
g245
sa(dp426
g4
g234
sg6
g247
sa(dp427
g4
g234
sg6
g249
sa(dp428
g4
g234
sg6
g231
sa(dp429
g4
g234
sg6
g252
sa(dp430
g4
g234
sg6
g254
sa(dp431
g4
g234
sg6
g256
sa(dp432
g4
g234
sg6
g258
sa(dp433
g4
g234
sg6
g260
sa(dp434
g4
g234
sg6
g77
sasg161
(lp435
(dp436
g4
g154
sg6
g155
sa(dp437
g4
g154
sg6
g157
sa(dp438
g4
g154
sg6
g159
sa(dp439
g4
g154
sg6
g161
sa(dp440
g4
g154
sg6
g163
sa(dp441
g4
g154
sg6
g165
sa(dp442
g4
g154
sg6
g167
sa(dp443
g4
g154
sg6
g169
sa(dp444
g4
g154
sg6
g128
sa(dp445
g4
g154
sg6
g130
sa(dp446
g4
g154
sg6
g132
sa(dp447
g4
g154
sg6
g134
sa(dp448
g4
g154
sg6
g136
sa(dp449
g4
g154
sg6
g138
sa(dp450
g4
g154
sg6
g177
sa(dp451
g4
g154
sg6
g179
sa(dp452
g4
g154
sg6
g181
sa(dp453
g4
g154
sg6
g183
sa(dp454
g4
g154
sg6
g7
sa(dp455
g4
g154
sg6
g186
sa(dp456
g4
g154
sg6
g81
sasg157
(lp457
(dp458
g4
g154
sg6
g155
sa(dp459
g4
g154
sg6
g157
sa(dp460
g4
g154
sg6
g159
sa(dp461
g4
g154
sg6
g161
sa(dp462
g4
g154
sg6
g163
sa(dp463
g4
g154
sg6
g165
sa(dp464
g4
g154
sg6
g167
sa(dp465
g4
g154
sg6
g169
sa(dp466
g4
g154
sg6
g128
sa(dp467
g4
g154
sg6
g130
sa(dp468
g4
g154
sg6
g132
sa(dp469
g4
g154
sg6
g134
sa(dp470
g4
g154
sg6
g136
sa(dp471
g4
g154
sg6
g138
sa(dp472
g4
g154
sg6
g177
sa(dp473
g4
g154
sg6
g179
sa(dp474
g4
g154
sg6
g181
sa(dp475
g4
g154
sg6
g183
sa(dp476
g4
g154
sg6
g7
sa(dp477
g4
g154
sg6
g186
sa(dp478
g4
g154
sg6
g81
sasg186
(lp479
(dp480
g4
g154
sg6
g155
sa(dp481
g4
g154
sg6
g157
sa(dp482
g4
g154
sg6
g159
sa(dp483
g4
g154
sg6
g161
sa(dp484
g4
g154
sg6
g163
sa(dp485
g4
g154
sg6
g165
sa(dp486
g4
g154
sg6
g167
sa(dp487
g4
g154
sg6
g169
sa(dp488
g4
g154
sg6
g128
sa(dp489
g4
g154
sg6
g130
sa(dp490
g4
g154
sg6
g132
sa(dp491
g4
g154
sg6
g134
sa(dp492
g4
g154
sg6
g136
sa(dp493
g4
g154
sg6
g138
sa(dp494
g4
g154
sg6
g177
sa(dp495
g4
g154
sg6
g179
sa(dp496
g4
g154
sg6
g181
sa(dp497
g4
g154
sg6
g183
sa(dp498
g4
g154
sg6
g7
sa(dp499
g4
g154
sg6
g186
sa(dp500
g4
g154
sg6
g81
sasg99
(lp501
(dp502
g4
g72
sg6
g73
sa(dp503
g4
g72
sg6
g75
sa(dp504
g4
g72
sg6
g77
sa(dp505
g4
g72
sg6
g69
sa(dp506
g4
g72
sg6
g9
sa(dp507
g4
g72
sg6
g81
sa(dp508
g4
g72
sg6
g83
sa(dp509
g4
g72
sg6
g85
sa(dp510
g4
g72
sg6
g87
sa(dp511
g4
g72
sg6
g89
sa(dp512
g4
g72
sg6
g91
sa(dp513
g4
g72
sg6
g93
sa(dp514
g4
g72
sg6
g95
sa(dp515
g4
g72
sg6
g97
sa(dp516
g4
g72
sg6
g99
sa(dp517
g4
g72
sg6
g101
sa(dp518
g4
g72
sg6
g103
sa(dp519
g4
g72
sg6
g105
sa(dp520
g4
g72
sg6
g107
sa(dp521
g4
g72
sg6
g109
sa(dp522
g4
g72
sg6
g38
sa(dp523
g4
g72
sg6
g112
sa(dp524
g4
g72
sg6
g34
sa(dp525
g4
g72
sg6
g115
sa(dp526
g4
g72
sg6
g117
sa(dp527
g4
g72
sg6
g119
sa(dp528
g4
g72
sg6
g121
sa(dp529
g4
g72
sg6
g123
sa(dp530
g4
g72
sg6
g125
sasg95
(lp531
(dp532
g4
g72
sg6
g73
sa(dp533
g4
g72
sg6
g75
sa(dp534
g4
g72
sg6
g77
sa(dp535
g4
g72
sg6
g69
sa(dp536
g4
g72
sg6
g9
sa(dp537
g4
g72
sg6
g81
sa(dp538
g4
g72
sg6
g83
sa(dp539
g4
g72
sg6
g85
sa(dp540
g4
g72
sg6
g87
sa(dp541
g4
g72
sg6
g89
sa(dp542
g4
g72
sg6
g91
sa(dp543
g4
g72
sg6
g93
sa(dp544
g4
g72
sg6
g95
sa(dp545
g4
g72
sg6
g97
sa(dp546
g4
g72
sg6
g99
sa(dp547
g4
g72
sg6
g101
sa(dp548
g4
g72
sg6
g103
sa(dp549
g4
g72
sg6
g105
sa(dp550
g4
g72
sg6
g107
sa(dp551
g4
g72
sg6
g109
sa(dp552
g4
g72
sg6
g38
sa(dp553
g4
g72
sg6
g112
sa(dp554
g4
g72
sg6
g34
sa(dp555
g4
g72
sg6
g115
sa(dp556
g4
g72
sg6
g117
sa(dp557
g4
g72
sg6
g119
sa(dp558
g4
g72
sg6
g121
sa(dp559
g4
g72
sg6
g123
sa(dp560
g4
g72
sg6
g125
sasg91
(lp561
(dp562
g4
g72
sg6
g73
sa(dp563
g4
g72
sg6
g75
sa(dp564
g4
g72
sg6
g77
sa(dp565
g4
g72
sg6
g69
sa(dp566
g4
g72
sg6
g9
sa(dp567
g4
g72
sg6
g81
sa(dp568
g4
g72
sg6
g83
sa(dp569
g4
g72
sg6
g85
sa(dp570
g4
g72
sg6
g87
sa(dp571
g4
g72
sg6
g89
sa(dp572
g4
g72
sg6
g91
sa(dp573
g4
g72
sg6
g93
sa(dp574
g4
g72
sg6
g95
sa(dp575
g4
g72
sg6
g97
sa(dp576
g4
g72
sg6
g99
sa(dp577
g4
g72
sg6
g101
sa(dp578
g4
g72
sg6
g103
sa(dp579
g4
g72
sg6
g105
sa(dp580
g4
g72
sg6
g107
sa(dp581
g4
g72
sg6
g109
sa(dp582
g4
g72
sg6
g38
sa(dp583
g4
g72
sg6
g112
sa(dp584
g4
g72
sg6
g34
sa(dp585
g4
g72
sg6
g115
sa(dp586
g4
g72
sg6
g117
sa(dp587
g4
g72
sg6
g119
sa(dp588
g4
g72
sg6
g121
sa(dp589
g4
g72
sg6
g123
sa(dp590
g4
g72
sg6
g125
sasg241
(lp591
(dp592
g4
g234
sg6
g235
sa(dp593
g4
g234
sg6
g237
sa(dp594
g4
g234
sg6
g239
sa(dp595
g4
g234
sg6
g241
sa(dp596
g4
g234
sg6
g243
sa(dp597
g4
g234
sg6
g245
sa(dp598
g4
g234
sg6
g247
sa(dp599
g4
g234
sg6
g249
sa(dp600
g4
g234
sg6
g231
sa(dp601
g4
g234
sg6
g252
sa(dp602
g4
g234
sg6
g254
sa(dp603
g4
g234
sg6
g256
sa(dp604
g4
g234
sg6
g258
sa(dp605
g4
g234
sg6
g260
sa(dp606
g4
g234
sg6
g77
sasg34
(lp607
(dp608
g4
g72
sg6
g73
sa(dp609
g4
g72
sg6
g75
sa(dp610
g4
g72
sg6
g77
sa(dp611
g4
g72
sg6
g69
sa(dp612
g4
g72
sg6
g9
sa(dp613
g4
g72
sg6
g81
sa(dp614
g4
g72
sg6
g83
sa(dp615
g4
g72
sg6
g85
sa(dp616
g4
g72
sg6
g87
sa(dp617
g4
g72
sg6
g89
sa(dp618
g4
g72
sg6
g91
sa(dp619
g4
g72
sg6
g93
sa(dp620
g4
g72
sg6
g95
sa(dp621
g4
g72
sg6
g97
sa(dp622
g4
g72
sg6
g99
sa(dp623
g4
g72
sg6
g101
sa(dp624
g4
g72
sg6
g103
sa(dp625
g4
g72
sg6
g105
sa(dp626
g4
g72
sg6
g107
sa(dp627
g4
g72
sg6
g109
sa(dp628
g4
g72
sg6
g38
sa(dp629
g4
g72
sg6
g112
sa(dp630
g4
g72
sg6
g34
sa(dp631
g4
g72
sg6
g115
sa(dp632
g4
g72
sg6
g117
sa(dp633
g4
g72
sg6
g119
sa(dp634
g4
g72
sg6
g121
sa(dp635
g4
g72
sg6
g123
sa(dp636
g4
g72
sg6
g125
sa(dp637
g4
g5
sg6
g7
sa(dp638
g4
g5
sg6
g9
sa(dp639
g4
g5
sg6
g11
sa(dp640
g4
g5
sg6
g13
sa(dp641
g4
g5
sg6
g15
sa(dp642
g4
g5
sg6
g17
sa(dp643
g4
g5
sg6
g19
sa(dp644
g4
g5
sg6
g21
sa(dp645
g4
g5
sg6
g23
sa(dp646
g4
g5
sg6
g25
sa(dp647
g4
g5
sg6
g27
sa(dp648
g4
g5
sg6
g29
sa(dp649
g4
g5
sg6
g1
sa(dp650
g4
g5
sg6
g32
sa(dp651
g4
g5
sg6
g34
sa(dp652
g4
g5
sg6
g36
sa(dp653
g4
g5
sg6
g38
sa(dp654
g4
g5
sg6
g40
sa(dp655
g4
g5
sg6
g42
sa(dp656
g4
g5
sg6
g44
sa(dp657
g4
g5
sg6
g46
sasg165
(lp658
(dp659
g4
g154
sg6
g155
sa(dp660
g4
g154
sg6
g157
sa(dp661
g4
g154
sg6
g159
sa(dp662
g4
g154
sg6
g161
sa(dp663
g4
g154
sg6
g163
sa(dp664
g4
g154
sg6
g165
sa(dp665
g4
g154
sg6
g167
sa(dp666
g4
g154
sg6
g169
sa(dp667
g4
g154
sg6
g128
sa(dp668
g4
g154
sg6
g130
sa(dp669
g4
g154
sg6
g132
sa(dp670
g4
g154
sg6
g134
sa(dp671
g4
g154
sg6
g136
sa(dp672
g4
g154
sg6
g138
sa(dp673
g4
g154
sg6
g177
sa(dp674
g4
g154
sg6
g179
sa(dp675
g4
g154
sg6
g181
sa(dp676
g4
g154
sg6
g183
sa(dp677
g4
g154
sg6
g7
sa(dp678
g4
g154
sg6
g186
sa(dp679
g4
g154
sg6
g81
sasg136
(lp680
(dp681
g4
g154
sg6
g155
sa(dp682
g4
g154
sg6
g157
sa(dp683
g4
g154
sg6
g159
sa(dp684
g4
g154
sg6
g161
sa(dp685
g4
g154
sg6
g163
sa(dp686
g4
g154
sg6
g165
sa(dp687
g4
g154
sg6
g167
sa(dp688
g4
g154
sg6
g169
sa(dp689
g4
g154
sg6
g128
sa(dp690
g4
g154
sg6
g130
sa(dp691
g4
g154
sg6
g132
sa(dp692
g4
g154
sg6
g134
sa(dp693
g4
g154
sg6
g136
sa(dp694
g4
g154
sg6
g138
sa(dp695
g4
g154
sg6
g177
sa(dp696
g4
g154
sg6
g179
sa(dp697
g4
g154
sg6
g181
sa(dp698
g4
g154
sg6
g183
sa(dp699
g4
g154
sg6
g7
sa(dp700
g4
g154
sg6
g186
sa(dp701
g4
g154
sg6
g81
sa(dp702
g4
g127
sg6
g128
sa(dp703
g4
g127
sg6
g130
sa(dp704
g4
g127
sg6
g132
sa(dp705
g4
g127
sg6
g134
sa(dp706
g4
g127
sg6
g136
sa(dp707
g4
g127
sg6
g138
sa(dp708
g4
g127
sg6
g140
sa(dp709
g4
g127
sg6
g142
sa(dp710
g4
g127
sg6
g144
sa(dp711
g4
g127
sg6
g146
sa(dp712
g4
g127
sg6
g148
sa(dp713
g4
g127
sg6
g150
sa(dp714
g4
g127
sg6
g69
sa(dp715
g4
S'\xe5\xa4\x9a\xe6\x91\xa9\xe5\xb7\x9d\xe7\xb7\x9a'
p716
sg6
g136
sa(dp717
g4
g716
sg6
S'\xe6\xb2\xbc\xe9\x83\xa8'
p718
sa(dp719
g4
g716
sg6
S'\xe9\xb5\x9c\xe3\x81\xae\xe6\x9c\xa8'
p720
sa(dp721
g4
g716
sg6
S'\xe4\xb8\x8b\xe4\xb8\xb8\xe5\xad\x90'
p722
sa(dp723
g4
g716
sg6
S'\xe6\xad\xa6\xe8\x94\xb5\xe6\x96\xb0\xe7\x94\xb0'
p724
sa(dp725
g4
g716
sg6
S'\xe7\x9f\xa2\xe5\x8f\xa3\xe6\xb8\xa1'
p726
sa(dp727
g4
g716
sg6
g235
sasg101
(lp728
(dp729
g4
g72
sg6
g73
sa(dp730
g4
g72
sg6
g75
sa(dp731
g4
g72
sg6
g77
sa(dp732
g4
g72
sg6
g69
sa(dp733
g4
g72
sg6
g9
sa(dp734
g4
g72
sg6
g81
sa(dp735
g4
g72
sg6
g83
sa(dp736
g4
g72
sg6
g85
sa(dp737
g4
g72
sg6
g87
sa(dp738
g4
g72
sg6
g89
sa(dp739
g4
g72
sg6
g91
sa(dp740
g4
g72
sg6
g93
sa(dp741
g4
g72
sg6
g95
sa(dp742
g4
g72
sg6
g97
sa(dp743
g4
g72
sg6
g99
sa(dp744
g4
g72
sg6
g101
sa(dp745
g4
g72
sg6
g103
sa(dp746
g4
g72
sg6
g105
sa(dp747
g4
g72
sg6
g107
sa(dp748
g4
g72
sg6
g109
sa(dp749
g4
g72
sg6
g38
sa(dp750
g4
g72
sg6
g112
sa(dp751
g4
g72
sg6
g34
sa(dp752
g4
g72
sg6
g115
sa(dp753
g4
g72
sg6
g117
sa(dp754
g4
g72
sg6
g119
sa(dp755
g4
g72
sg6
g121
sa(dp756
g4
g72
sg6
g123
sa(dp757
g4
g72
sg6
g125
sasg142
(lp758
(dp759
g4
g127
sg6
g128
sa(dp760
g4
g127
sg6
g130
sa(dp761
g4
g127
sg6
g132
sa(dp762
g4
g127
sg6
g134
sa(dp763
g4
g127
sg6
g136
sa(dp764
g4
g127
sg6
g138
sa(dp765
g4
g127
sg6
g140
sa(dp766
g4
g127
sg6
g142
sa(dp767
g4
g127
sg6
g144
sa(dp768
g4
g127
sg6
g146
sa(dp769
g4
g127
sg6
g148
sa(dp770
g4
g127
sg6
g150
sa(dp771
g4
g127
sg6
g69
sa(dp772
g4
g317
sg6
g318
sa(dp773
g4
g317
sg6
g320
sa(dp774
g4
g317
sg6
g322
sa(dp775
g4
g317
sg6
g314
sa(dp776
g4
g317
sg6
g325
sa(dp777
g4
g317
sg6
g177
sa(dp778
g4
g317
sg6
g328
sa(dp779
g4
g317
sg6
g142
sa(dp780
g4
g317
sg6
g331
sa(dp781
g4
g317
sg6
g254
sa(dp782
g4
g317
sg6
g334
sa(dp783
g4
g317
sg6
g336
sa(dp784
g4
g317
sg6
g338
sa(dp785
g4
g317
sg6
g340
sa(dp786
g4
g317
sg6
g342
sasg150
(lp787
(dp788
g4
g127
sg6
g128
sa(dp789
g4
g127
sg6
g130
sa(dp790
g4
g127
sg6
g132
sa(dp791
g4
g127
sg6
g134
sa(dp792
g4
g127
sg6
g136
sa(dp793
g4
g127
sg6
g138
sa(dp794
g4
g127
sg6
g140
sa(dp795
g4
g127
sg6
g142
sa(dp796
g4
g127
sg6
g144
sa(dp797
g4
g127
sg6
g146
sa(dp798
g4
g127
sg6
g148
sa(dp799
g4
g127
sg6
g150
sa(dp800
g4
g127
sg6
g69
sasg179
(lp801
(dp802
g4
g154
sg6
g155
sa(dp803
g4
g154
sg6
g157
sa(dp804
g4
g154
sg6
g159
sa(dp805
g4
g154
sg6
g161
sa(dp806
g4
g154
sg6
g163
sa(dp807
g4
g154
sg6
g165
sa(dp808
g4
g154
sg6
g167
sa(dp809
g4
g154
sg6
g169
sa(dp810
g4
g154
sg6
g128
sa(dp811
g4
g154
sg6
g130
sa(dp812
g4
g154
sg6
g132
sa(dp813
g4
g154
sg6
g134
sa(dp814
g4
g154
sg6
g136
sa(dp815
g4
g154
sg6
g138
sa(dp816
g4
g154
sg6
g177
sa(dp817
g4
g154
sg6
g179
sa(dp818
g4
g154
sg6
g181
sa(dp819
g4
g154
sg6
g183
sa(dp820
g4
g154
sg6
g7
sa(dp821
g4
g154
sg6
g186
sa(dp822
g4
g154
sg6
g81
sasg97
(lp823
(dp824
g4
g72
sg6
g73
sa(dp825
g4
g72
sg6
g75
sa(dp826
g4
g72
sg6
g77
sa(dp827
g4
g72
sg6
g69
sa(dp828
g4
g72
sg6
g9
sa(dp829
g4
g72
sg6
g81
sa(dp830
g4
g72
sg6
g83
sa(dp831
g4
g72
sg6
g85
sa(dp832
g4
g72
sg6
g87
sa(dp833
g4
g72
sg6
g89
sa(dp834
g4
g72
sg6
g91
sa(dp835
g4
g72
sg6
g93
sa(dp836
g4
g72
sg6
g95
sa(dp837
g4
g72
sg6
g97
sa(dp838
g4
g72
sg6
g99
sa(dp839
g4
g72
sg6
g101
sa(dp840
g4
g72
sg6
g103
sa(dp841
g4
g72
sg6
g105
sa(dp842
g4
g72
sg6
g107
sa(dp843
g4
g72
sg6
g109
sa(dp844
g4
g72
sg6
g38
sa(dp845
g4
g72
sg6
g112
sa(dp846
g4
g72
sg6
g34
sa(dp847
g4
g72
sg6
g115
sa(dp848
g4
g72
sg6
g117
sa(dp849
g4
g72
sg6
g119
sa(dp850
g4
g72
sg6
g121
sa(dp851
g4
g72
sg6
g123
sa(dp852
g4
g72
sg6
g125
sasg109
(lp853
(dp854
g4
g72
sg6
g73
sa(dp855
g4
g72
sg6
g75
sa(dp856
g4
g72
sg6
g77
sa(dp857
g4
g72
sg6
g69
sa(dp858
g4
g72
sg6
g9
sa(dp859
g4
g72
sg6
g81
sa(dp860
g4
g72
sg6
g83
sa(dp861
g4
g72
sg6
g85
sa(dp862
g4
g72
sg6
g87
sa(dp863
g4
g72
sg6
g89
sa(dp864
g4
g72
sg6
g91
sa(dp865
g4
g72
sg6
g93
sa(dp866
g4
g72
sg6
g95
sa(dp867
g4
g72
sg6
g97
sa(dp868
g4
g72
sg6
g99
sa(dp869
g4
g72
sg6
g101
sa(dp870
g4
g72
sg6
g103
sa(dp871
g4
g72
sg6
g105
sa(dp872
g4
g72
sg6
g107
sa(dp873
g4
g72
sg6
g109
sa(dp874
g4
g72
sg6
g38
sa(dp875
g4
g72
sg6
g112
sa(dp876
g4
g72
sg6
g34
sa(dp877
g4
g72
sg6
g115
sa(dp878
g4
g72
sg6
g117
sa(dp879
g4
g72
sg6
g119
sa(dp880
g4
g72
sg6
g121
sa(dp881
g4
g72
sg6
g123
sa(dp882
g4
g72
sg6
g125
sasg159
(lp883
(dp884
g4
g154
sg6
g155
sa(dp885
g4
g154
sg6
g157
sa(dp886
g4
g154
sg6
g159
sa(dp887
g4
g154
sg6
g161
sa(dp888
g4
g154
sg6
g163
sa(dp889
g4
g154
sg6
g165
sa(dp890
g4
g154
sg6
g167
sa(dp891
g4
g154
sg6
g169
sa(dp892
g4
g154
sg6
g128
sa(dp893
g4
g154
sg6
g130
sa(dp894
g4
g154
sg6
g132
sa(dp895
g4
g154
sg6
g134
sa(dp896
g4
g154
sg6
g136
sa(dp897
g4
g154
sg6
g138
sa(dp898
g4
g154
sg6
g177
sa(dp899
g4
g154
sg6
g179
sa(dp900
g4
g154
sg6
g181
sa(dp901
g4
g154
sg6
g183
sa(dp902
g4
g154
sg6
g7
sa(dp903
g4
g154
sg6
g186
sa(dp904
g4
g154
sg6
g81
sasg138
(lp905
(dp906
g4
g154
sg6
g155
sa(dp907
g4
g154
sg6
g157
sa(dp908
g4
g154
sg6
g159
sa(dp909
g4
g154
sg6
g161
sa(dp910
g4
g154
sg6
g163
sa(dp911
g4
g154
sg6
g165
sa(dp912
g4
g154
sg6
g167
sa(dp913
g4
g154
sg6
g169
sa(dp914
g4
g154
sg6
g128
sa(dp915
g4
g154
sg6
g130
sa(dp916
g4
g154
sg6
g132
sa(dp917
g4
g154
sg6
g134
sa(dp918
g4
g154
sg6
g136
sa(dp919
g4
g154
sg6
g138
sa(dp920
g4
g154
sg6
g177
sa(dp921
g4
g154
sg6
g179
sa(dp922
g4
g154
sg6
g181
sa(dp923
g4
g154
sg6
g183
sa(dp924
g4
g154
sg6
g7
sa(dp925
g4
g154
sg6
g186
sa(dp926
g4
g154
sg6
g81
sa(dp927
g4
g127
sg6
g128
sa(dp928
g4
g127
sg6
g130
sa(dp929
g4
g127
sg6
g132
sa(dp930
g4
g127
sg6
g134
sa(dp931
g4
g127
sg6
g136
sa(dp932
g4
g127
sg6
g138
sa(dp933
g4
g127
sg6
g140
sa(dp934
g4
g127
sg6
g142
sa(dp935
g4
g127
sg6
g144
sa(dp936
g4
g127
sg6
g146
sa(dp937
g4
g127
sg6
g148
sa(dp938
g4
g127
sg6
g150
sa(dp939
g4
g127
sg6
g69
sasg36
(lp940
(dp941
g4
g5
sg6
g7
sa(dp942
g4
g5
sg6
g9
sa(dp943
g4
g5
sg6
g11
sa(dp944
g4
g5
sg6
g13
sa(dp945
g4
g5
sg6
g15
sa(dp946
g4
g5
sg6
g17
sa(dp947
g4
g5
sg6
g19
sa(dp948
g4
g5
sg6
g21
sa(dp949
g4
g5
sg6
g23
sa(dp950
g4
g5
sg6
g25
sa(dp951
g4
g5
sg6
g27
sa(dp952
g4
g5
sg6
g29
sa(dp953
g4
g5
sg6
g1
sa(dp954
g4
g5
sg6
g32
sa(dp955
g4
g5
sg6
g34
sa(dp956
g4
g5
sg6
g36
sa(dp957
g4
g5
sg6
g38
sa(dp958
g4
g5
sg6
g40
sa(dp959
g4
g5
sg6
g42
sa(dp960
g4
g5
sg6
g44
sa(dp961
g4
g5
sg6
g46
sasg254
(lp962
(dp963
g4
g234
sg6
g235
sa(dp964
g4
g234
sg6
g237
sa(dp965
g4
g234
sg6
g239
sa(dp966
g4
g234
sg6
g241
sa(dp967
g4
g234
sg6
g243
sa(dp968
g4
g234
sg6
g245
sa(dp969
g4
g234
sg6
g247
sa(dp970
g4
g234
sg6
g249
sa(dp971
g4
g234
sg6
g231
sa(dp972
g4
g234
sg6
g252
sa(dp973
g4
g234
sg6
g254
sa(dp974
g4
g234
sg6
g256
sa(dp975
g4
g234
sg6
g258
sa(dp976
g4
g234
sg6
g260
sa(dp977
g4
g234
sg6
g77
sa(dp978
g4
g317
sg6
g318
sa(dp979
g4
g317
sg6
g320
sa(dp980
g4
g317
sg6
g322
sa(dp981
g4
g317
sg6
g314
sa(dp982
g4
g317
sg6
g325
sa(dp983
g4
g317
sg6
g177
sa(dp984
g4
g317
sg6
g328
sa(dp985
g4
g317
sg6
g142
sa(dp986
g4
g317
sg6
g331
sa(dp987
g4
g317
sg6
g254
sa(dp988
g4
g317
sg6
g334
sa(dp989
g4
g317
sg6
g336
sa(dp990
g4
g317
sg6
g338
sa(dp991
g4
g317
sg6
g340
sa(dp992
g4
g317
sg6
g342
sasg40
(lp993
(dp994
g4
g5
sg6
g7
sa(dp995
g4
g5
sg6
g9
sa(dp996
g4
g5
sg6
g11
sa(dp997
g4
g5
sg6
g13
sa(dp998
g4
g5
sg6
g15
sa(dp999
g4
g5
sg6
g17
sa(dp1000
g4
g5
sg6
g19
sa(dp1001
g4
g5
sg6
g21
sa(dp1002
g4
g5
sg6
g23
sa(dp1003
g4
g5
sg6
g25
sa(dp1004
g4
g5
sg6
g27
sa(dp1005
g4
g5
sg6
g29
sa(dp1006
g4
g5
sg6
g1
sa(dp1007
g4
g5
sg6
g32
sa(dp1008
g4
g5
sg6
g34
sa(dp1009
g4
g5
sg6
g36
sa(dp1010
g4
g5
sg6
g38
sa(dp1011
g4
g5
sg6
g40
sa(dp1012
g4
g5
sg6
g42
sa(dp1013
g4
g5
sg6
g44
sa(dp1014
g4
g5
sg6
g46
sasg239
(lp1015
(dp1016
g4
g234
sg6
g235
sa(dp1017
g4
g234
sg6
g237
sa(dp1018
g4
g234
sg6
g239
sa(dp1019
g4
g234
sg6
g241
sa(dp1020
g4
g234
sg6
g243
sa(dp1021
g4
g234
sg6
g245
sa(dp1022
g4
g234
sg6
g247
sa(dp1023
g4
g234
sg6
g249
sa(dp1024
g4
g234
sg6
g231
sa(dp1025
g4
g234
sg6
g252
sa(dp1026
g4
g234
sg6
g254
sa(dp1027
g4
g234
sg6
g256
sa(dp1028
g4
g234
sg6
g258
sa(dp1029
g4
g234
sg6
g260
sa(dp1030
g4
g234
sg6
g77
sasg167
(lp1031
(dp1032
g4
g154
sg6
g155
sa(dp1033
g4
g154
sg6
g157
sa(dp1034
g4
g154
sg6
g159
sa(dp1035
g4
g154
sg6
g161
sa(dp1036
g4
g154
sg6
g163
sa(dp1037
g4
g154
sg6
g165
sa(dp1038
g4
g154
sg6
g167
sa(dp1039
g4
g154
sg6
g169
sa(dp1040
g4
g154
sg6
g128
sa(dp1041
g4
g154
sg6
g130
sa(dp1042
g4
g154
sg6
g132
sa(dp1043
g4
g154
sg6
g134
sa(dp1044
g4
g154
sg6
g136
sa(dp1045
g4
g154
sg6
g138
sa(dp1046
g4
g154
sg6
g177
sa(dp1047
g4
g154
sg6
g179
sa(dp1048
g4
g154
sg6
g181
sa(dp1049
g4
g154
sg6
g183
sa(dp1050
g4
g154
sg6
g7
sa(dp1051
g4
g154
sg6
g186
sa(dp1052
g4
g154
sg6
g81
sasg243
(lp1053
(dp1054
g4
g234
sg6
g235
sa(dp1055
g4
g234
sg6
g237
sa(dp1056
g4
g234
sg6
g239
sa(dp1057
g4
g234
sg6
g241
sa(dp1058
g4
g234
sg6
g243
sa(dp1059
g4
g234
sg6
g245
sa(dp1060
g4
g234
sg6
g247
sa(dp1061
g4
g234
sg6
g249
sa(dp1062
g4
g234
sg6
g231
sa(dp1063
g4
g234
sg6
g252
sa(dp1064
g4
g234
sg6
g254
sa(dp1065
g4
g234
sg6
g256
sa(dp1066
g4
g234
sg6
g258
sa(dp1067
g4
g234
sg6
g260
sa(dp1068
g4
g234
sg6
g77
sasg340
(lp1069
(dp1070
g4
g317
sg6
g318
sa(dp1071
g4
g317
sg6
g320
sa(dp1072
g4
g317
sg6
g322
sa(dp1073
g4
g317
sg6
g314
sa(dp1074
g4
g317
sg6
g325
sa(dp1075
g4
g317
sg6
g177
sa(dp1076
g4
g317
sg6
g328
sa(dp1077
g4
g317
sg6
g142
sa(dp1078
g4
g317
sg6
g331
sa(dp1079
g4
g317
sg6
g254
sa(dp1080
g4
g317
sg6
g334
sa(dp1081
g4
g317
sg6
g336
sa(dp1082
g4
g317
sg6
g338
sa(dp1083
g4
g317
sg6
g340
sa(dp1084
g4
g317
sg6
g342
sasg13
(lp1085
(dp1086
g4
g5
sg6
g7
sa(dp1087
g4
g5
sg6
g9
sa(dp1088
g4
g5
sg6
g11
sa(dp1089
g4
g5
sg6
g13
sa(dp1090
g4
g5
sg6
g15
sa(dp1091
g4
g5
sg6
g17
sa(dp1092
g4
g5
sg6
g19
sa(dp1093
g4
g5
sg6
g21
sa(dp1094
g4
g5
sg6
g23
sa(dp1095
g4
g5
sg6
g25
sa(dp1096
g4
g5
sg6
g27
sa(dp1097
g4
g5
sg6
g29
sa(dp1098
g4
g5
sg6
g1
sa(dp1099
g4
g5
sg6
g32
sa(dp1100
g4
g5
sg6
g34
sa(dp1101
g4
g5
sg6
g36
sa(dp1102
g4
g5
sg6
g38
sa(dp1103
g4
g5
sg6
g40
sa(dp1104
g4
g5
sg6
g42
sa(dp1105
g4
g5
sg6
g44
sa(dp1106
g4
g5
sg6
g46
sasg726
(lp1107
(dp1108
g4
g716
sg6
g136
sa(dp1109
g4
g716
sg6
g718
sa(dp1110
g4
g716
sg6
g720
sa(dp1111
g4
g716
sg6
g722
sa(dp1112
g4
g716
sg6
g724
sa(dp1113
g4
g716
sg6
g726
sa(dp1114
g4
g716
sg6
g235
sasg85
(lp1115
(dp1116
g4
g72
sg6
g73
sa(dp1117
g4
g72
sg6
g75
sa(dp1118
g4
g72
sg6
g77
sa(dp1119
g4
g72
sg6
g69
sa(dp1120
g4
g72
sg6
g9
sa(dp1121
g4
g72
sg6
g81
sa(dp1122
g4
g72
sg6
g83
sa(dp1123
g4
g72
sg6
g85
sa(dp1124
g4
g72
sg6
g87
sa(dp1125
g4
g72
sg6
g89
sa(dp1126
g4
g72
sg6
g91
sa(dp1127
g4
g72
sg6
g93
sa(dp1128
g4
g72
sg6
g95
sa(dp1129
g4
g72
sg6
g97
sa(dp1130
g4
g72
sg6
g99
sa(dp1131
g4
g72
sg6
g101
sa(dp1132
g4
g72
sg6
g103
sa(dp1133
g4
g72
sg6
g105
sa(dp1134
g4
g72
sg6
g107
sa(dp1135
g4
g72
sg6
g109
sa(dp1136
g4
g72
sg6
g38
sa(dp1137
g4
g72
sg6
g112
sa(dp1138
g4
g72
sg6
g34
sa(dp1139
g4
g72
sg6
g115
sa(dp1140
g4
g72
sg6
g117
sa(dp1141
g4
g72
sg6
g119
sa(dp1142
g4
g72
sg6
g121
sa(dp1143
g4
g72
sg6
g123
sa(dp1144
g4
g72
sg6
g125
sasg27
(lp1145
(dp1146
g4
g5
sg6
g7
sa(dp1147
g4
g5
sg6
g9
sa(dp1148
g4
g5
sg6
g11
sa(dp1149
g4
g5
sg6
g13
sa(dp1150
g4
g5
sg6
g15
sa(dp1151
g4
g5
sg6
g17
sa(dp1152
g4
g5
sg6
g19
sa(dp1153
g4
g5
sg6
g21
sa(dp1154
g4
g5
sg6
g23
sa(dp1155
g4
g5
sg6
g25
sa(dp1156
g4
g5
sg6
g27
sa(dp1157
g4
g5
sg6
g29
sa(dp1158
g4
g5
sg6
g1
sa(dp1159
g4
g5
sg6
g32
sa(dp1160
g4
g5
sg6
g34
sa(dp1161
g4
g5
sg6
g36
sa(dp1162
g4
g5
sg6
g38
sa(dp1163
g4
g5
sg6
g40
sa(dp1164
g4
g5
sg6
g42
sa(dp1165
g4
g5
sg6
g44
sa(dp1166
g4
g5
sg6
g46
sasg73
(lp1167
(dp1168
g4
g72
sg6
g73
sa(dp1169
g4
g72
sg6
g75
sa(dp1170
g4
g72
sg6
g77
sa(dp1171
g4
g72
sg6
g69
sa(dp1172
g4
g72
sg6
g9
sa(dp1173
g4
g72
sg6
g81
sa(dp1174
g4
g72
sg6
g83
sa(dp1175
g4
g72
sg6
g85
sa(dp1176
g4
g72
sg6
g87
sa(dp1177
g4
g72
sg6
g89
sa(dp1178
g4
g72
sg6
g91
sa(dp1179
g4
g72
sg6
g93
sa(dp1180
g4
g72
sg6
g95
sa(dp1181
g4
g72
sg6
g97
sa(dp1182
g4
g72
sg6
g99
sa(dp1183
g4
g72
sg6
g101
sa(dp1184
g4
g72
sg6
g103
sa(dp1185
g4
g72
sg6
g105
sa(dp1186
g4
g72
sg6
g107
sa(dp1187
g4
g72
sg6
g109
sa(dp1188
g4
g72
sg6
g38
sa(dp1189
g4
g72
sg6
g112
sa(dp1190
g4
g72
sg6
g34
sa(dp1191
g4
g72
sg6
g115
sa(dp1192
g4
g72
sg6
g117
sa(dp1193
g4
g72
sg6
g119
sa(dp1194
g4
g72
sg6
g121
sa(dp1195
g4
g72
sg6
g123
sa(dp1196
g4
g72
sg6
g125
sasg718
(lp1197
(dp1198
g4
g716
sg6
g136
sa(dp1199
g4
g716
sg6
g718
sa(dp1200
g4
g716
sg6
g720
sa(dp1201
g4
g716
sg6
g722
sa(dp1202
g4
g716
sg6
g724
sa(dp1203
g4
g716
sg6
g726
sa(dp1204
g4
g716
sg6
g235
sasg87
(lp1205
(dp1206
g4
g72
sg6
g73
sa(dp1207
g4
g72
sg6
g75
sa(dp1208
g4
g72
sg6
g77
sa(dp1209
g4
g72
sg6
g69
sa(dp1210
g4
g72
sg6
g9
sa(dp1211
g4
g72
sg6
g81
sa(dp1212
g4
g72
sg6
g83
sa(dp1213
g4
g72
sg6
g85
sa(dp1214
g4
g72
sg6
g87
sa(dp1215
g4
g72
sg6
g89
sa(dp1216
g4
g72
sg6
g91
sa(dp1217
g4
g72
sg6
g93
sa(dp1218
g4
g72
sg6
g95
sa(dp1219
g4
g72
sg6
g97
sa(dp1220
g4
g72
sg6
g99
sa(dp1221
g4
g72
sg6
g101
sa(dp1222
g4
g72
sg6
g103
sa(dp1223
g4
g72
sg6
g105
sa(dp1224
g4
g72
sg6
g107
sa(dp1225
g4
g72
sg6
g109
sa(dp1226
g4
g72
sg6
g38
sa(dp1227
g4
g72
sg6
g112
sa(dp1228
g4
g72
sg6
g34
sa(dp1229
g4
g72
sg6
g115
sa(dp1230
g4
g72
sg6
g117
sa(dp1231
g4
g72
sg6
g119
sa(dp1232
g4
g72
sg6
g121
sa(dp1233
g4
g72
sg6
g123
sa(dp1234
g4
g72
sg6
g125
sasg23
(lp1235
(dp1236
g4
g5
sg6
g7
sa(dp1237
g4
g5
sg6
g9
sa(dp1238
g4
g5
sg6
g11
sa(dp1239
g4
g5
sg6
g13
sa(dp1240
g4
g5
sg6
g15
sa(dp1241
g4
g5
sg6
g17
sa(dp1242
g4
g5
sg6
g19
sa(dp1243
g4
g5
sg6
g21
sa(dp1244
g4
g5
sg6
g23
sa(dp1245
g4
g5
sg6
g25
sa(dp1246
g4
g5
sg6
g27
sa(dp1247
g4
g5
sg6
g29
sa(dp1248
g4
g5
sg6
g1
sa(dp1249
g4
g5
sg6
g32
sa(dp1250
g4
g5
sg6
g34
sa(dp1251
g4
g5
sg6
g36
sa(dp1252
g4
g5
sg6
g38
sa(dp1253
g4
g5
sg6
g40
sa(dp1254
g4
g5
sg6
g42
sa(dp1255
g4
g5
sg6
g44
sa(dp1256
g4
g5
sg6
g46
sasg325
(lp1257
(dp1258
g4
g317
sg6
g318
sa(dp1259
g4
g317
sg6
g320
sa(dp1260
g4
g317
sg6
g322
sa(dp1261
g4
g317
sg6
g314
sa(dp1262
g4
g317
sg6
g325
sa(dp1263
g4
g317
sg6
g177
sa(dp1264
g4
g317
sg6
g328
sa(dp1265
g4
g317
sg6
g142
sa(dp1266
g4
g317
sg6
g331
sa(dp1267
g4
g317
sg6
g254
sa(dp1268
g4
g317
sg6
g334
sa(dp1269
g4
g317
sg6
g336
sa(dp1270
g4
g317
sg6
g338
sa(dp1271
g4
g317
sg6
g340
sa(dp1272
g4
g317
sg6
g342
sasg83
(lp1273
(dp1274
g4
g72
sg6
g73
sa(dp1275
g4
g72
sg6
g75
sa(dp1276
g4
g72
sg6
g77
sa(dp1277
g4
g72
sg6
g69
sa(dp1278
g4
g72
sg6
g9
sa(dp1279
g4
g72
sg6
g81
sa(dp1280
g4
g72
sg6
g83
sa(dp1281
g4
g72
sg6
g85
sa(dp1282
g4
g72
sg6
g87
sa(dp1283
g4
g72
sg6
g89
sa(dp1284
g4
g72
sg6
g91
sa(dp1285
g4
g72
sg6
g93
sa(dp1286
g4
g72
sg6
g95
sa(dp1287
g4
g72
sg6
g97
sa(dp1288
g4
g72
sg6
g99
sa(dp1289
g4
g72
sg6
g101
sa(dp1290
g4
g72
sg6
g103
sa(dp1291
g4
g72
sg6
g105
sa(dp1292
g4
g72
sg6
g107
sa(dp1293
g4
g72
sg6
g109
sa(dp1294
g4
g72
sg6
g38
sa(dp1295
g4
g72
sg6
g112
sa(dp1296
g4
g72
sg6
g34
sa(dp1297
g4
g72
sg6
g115
sa(dp1298
g4
g72
sg6
g117
sa(dp1299
g4
g72
sg6
g119
sa(dp1300
g4
g72
sg6
g121
sa(dp1301
g4
g72
sg6
g123
sa(dp1302
g4
g72
sg6
g125
sasg181
(lp1303
(dp1304
g4
g154
sg6
g155
sa(dp1305
g4
g154
sg6
g157
sa(dp1306
g4
g154
sg6
g159
sa(dp1307
g4
g154
sg6
g161
sa(dp1308
g4
g154
sg6
g163
sa(dp1309
g4
g154
sg6
g165
sa(dp1310
g4
g154
sg6
g167
sa(dp1311
g4
g154
sg6
g169
sa(dp1312
g4
g154
sg6
g128
sa(dp1313
g4
g154
sg6
g130
sa(dp1314
g4
g154
sg6
g132
sa(dp1315
g4
g154
sg6
g134
sa(dp1316
g4
g154
sg6
g136
sa(dp1317
g4
g154
sg6
g138
sa(dp1318
g4
g154
sg6
g177
sa(dp1319
g4
g154
sg6
g179
sa(dp1320
g4
g154
sg6
g181
sa(dp1321
g4
g154
sg6
g183
sa(dp1322
g4
g154
sg6
g7
sa(dp1323
g4
g154
sg6
g186
sa(dp1324
g4
g154
sg6
g81
sasg11
(lp1325
(dp1326
g4
g5
sg6
g7
sa(dp1327
g4
g5
sg6
g9
sa(dp1328
g4
g5
sg6
g11
sa(dp1329
g4
g5
sg6
g13
sa(dp1330
g4
g5
sg6
g15
sa(dp1331
g4
g5
sg6
g17
sa(dp1332
g4
g5
sg6
g19
sa(dp1333
g4
g5
sg6
g21
sa(dp1334
g4
g5
sg6
g23
sa(dp1335
g4
g5
sg6
g25
sa(dp1336
g4
g5
sg6
g27
sa(dp1337
g4
g5
sg6
g29
sa(dp1338
g4
g5
sg6
g1
sa(dp1339
g4
g5
sg6
g32
sa(dp1340
g4
g5
sg6
g34
sa(dp1341
g4
g5
sg6
g36
sa(dp1342
g4
g5
sg6
g38
sa(dp1343
g4
g5
sg6
g40
sa(dp1344
g4
g5
sg6
g42
sa(dp1345
g4
g5
sg6
g44
sa(dp1346
g4
g5
sg6
g46
sasg724
(lp1347
(dp1348
g4
g716
sg6
g136
sa(dp1349
g4
g716
sg6
g718
sa(dp1350
g4
g716
sg6
g720
sa(dp1351
g4
g716
sg6
g722
sa(dp1352
g4
g716
sg6
g724
sa(dp1353
g4
g716
sg6
g726
sa(dp1354
g4
g716
sg6
g235
sasg105
(lp1355
(dp1356
g4
g72
sg6
g73
sa(dp1357
g4
g72
sg6
g75
sa(dp1358
g4
g72
sg6
g77
sa(dp1359
g4
g72
sg6
g69
sa(dp1360
g4
g72
sg6
g9
sa(dp1361
g4
g72
sg6
g81
sa(dp1362
g4
g72
sg6
g83
sa(dp1363
g4
g72
sg6
g85
sa(dp1364
g4
g72
sg6
g87
sa(dp1365
g4
g72
sg6
g89
sa(dp1366
g4
g72
sg6
g91
sa(dp1367
g4
g72
sg6
g93
sa(dp1368
g4
g72
sg6
g95
sa(dp1369
g4
g72
sg6
g97
sa(dp1370
g4
g72
sg6
g99
sa(dp1371
g4
g72
sg6
g101
sa(dp1372
g4
g72
sg6
g103
sa(dp1373
g4
g72
sg6
g105
sa(dp1374
g4
g72
sg6
g107
sa(dp1375
g4
g72
sg6
g109
sa(dp1376
g4
g72
sg6
g38
sa(dp1377
g4
g72
sg6
g112
sa(dp1378
g4
g72
sg6
g34
sa(dp1379
g4
g72
sg6
g115
sa(dp1380
g4
g72
sg6
g117
sa(dp1381
g4
g72
sg6
g119
sa(dp1382
g4
g72
sg6
g121
sa(dp1383
g4
g72
sg6
g123
sa(dp1384
g4
g72
sg6
g125
sasg119
(lp1385
(dp1386
g4
g72
sg6
g73
sa(dp1387
g4
g72
sg6
g75
sa(dp1388
g4
g72
sg6
g77
sa(dp1389
g4
g72
sg6
g69
sa(dp1390
g4
g72
sg6
g9
sa(dp1391
g4
g72
sg6
g81
sa(dp1392
g4
g72
sg6
g83
sa(dp1393
g4
g72
sg6
g85
sa(dp1394
g4
g72
sg6
g87
sa(dp1395
g4
g72
sg6
g89
sa(dp1396
g4
g72
sg6
g91
sa(dp1397
g4
g72
sg6
g93
sa(dp1398
g4
g72
sg6
g95
sa(dp1399
g4
g72
sg6
g97
sa(dp1400
g4
g72
sg6
g99
sa(dp1401
g4
g72
sg6
g101
sa(dp1402
g4
g72
sg6
g103
sa(dp1403
g4
g72
sg6
g105
sa(dp1404
g4
g72
sg6
g107
sa(dp1405
g4
g72
sg6
g109
sa(dp1406
g4
g72
sg6
g38
sa(dp1407
g4
g72
sg6
g112
sa(dp1408
g4
g72
sg6
g34
sa(dp1409
g4
g72
sg6
g115
sa(dp1410
g4
g72
sg6
g117
sa(dp1411
g4
g72
sg6
g119
sa(dp1412
g4
g72
sg6
g121
sa(dp1413
g4
g72
sg6
g123
sa(dp1414
g4
g72
sg6
g125
sasg144
(lp1415
(dp1416
g4
g127
sg6
g128
sa(dp1417
g4
g127
sg6
g130
sa(dp1418
g4
g127
sg6
g132
sa(dp1419
g4
g127
sg6
g134
sa(dp1420
g4
g127
sg6
g136
sa(dp1421
g4
g127
sg6
g138
sa(dp1422
g4
g127
sg6
g140
sa(dp1423
g4
g127
sg6
g142
sa(dp1424
g4
g127
sg6
g144
sa(dp1425
g4
g127
sg6
g146
sa(dp1426
g4
g127
sg6
g148
sa(dp1427
g4
g127
sg6
g150
sa(dp1428
g4
g127
sg6
g69
sasg342
(lp1429
(dp1430
g4
g317
sg6
g318
sa(dp1431
g4
g317
sg6
g320
sa(dp1432
g4
g317
sg6
g322
sa(dp1433
g4
g317
sg6
g314
sa(dp1434
g4
g317
sg6
g325
sa(dp1435
g4
g317
sg6
g177
sa(dp1436
g4
g317
sg6
g328
sa(dp1437
g4
g317
sg6
g142
sa(dp1438
g4
g317
sg6
g331
sa(dp1439
g4
g317
sg6
g254
sa(dp1440
g4
g317
sg6
g334
sa(dp1441
g4
g317
sg6
g336
sa(dp1442
g4
g317
sg6
g338
sa(dp1443
g4
g317
sg6
g340
sa(dp1444
g4
g317
sg6
g342
sasg140
(lp1445
(dp1446
g4
g127
sg6
g128
sa(dp1447
g4
g127
sg6
g130
sa(dp1448
g4
g127
sg6
g132
sa(dp1449
g4
g127
sg6
g134
sa(dp1450
g4
g127
sg6
g136
sa(dp1451
g4
g127
sg6
g138
sa(dp1452
g4
g127
sg6
g140
sa(dp1453
g4
g127
sg6
g142
sa(dp1454
g4
g127
sg6
g144
sa(dp1455
g4
g127
sg6
g146
sa(dp1456
g4
g127
sg6
g148
sa(dp1457
g4
g127
sg6
g150
sa(dp1458
g4
g127
sg6
g69
sasg169
(lp1459
(dp1460
g4
g154
sg6
g155
sa(dp1461
g4
g154
sg6
g157
sa(dp1462
g4
g154
sg6
g159
sa(dp1463
g4
g154
sg6
g161
sa(dp1464
g4
g154
sg6
g163
sa(dp1465
g4
g154
sg6
g165
sa(dp1466
g4
g154
sg6
g167
sa(dp1467
g4
g154
sg6
g169
sa(dp1468
g4
g154
sg6
g128
sa(dp1469
g4
g154
sg6
g130
sa(dp1470
g4
g154
sg6
g132
sa(dp1471
g4
g154
sg6
g134
sa(dp1472
g4
g154
sg6
g136
sa(dp1473
g4
g154
sg6
g138
sa(dp1474
g4
g154
sg6
g177
sa(dp1475
g4
g154
sg6
g179
sa(dp1476
g4
g154
sg6
g181
sa(dp1477
g4
g154
sg6
g183
sa(dp1478
g4
g154
sg6
g7
sa(dp1479
g4
g154
sg6
g186
sa(dp1480
g4
g154
sg6
g81
sasg148
(lp1481
(dp1482
g4
g127
sg6
g128
sa(dp1483
g4
g127
sg6
g130
sa(dp1484
g4
g127
sg6
g132
sa(dp1485
g4
g127
sg6
g134
sa(dp1486
g4
g127
sg6
g136
sa(dp1487
g4
g127
sg6
g138
sa(dp1488
g4
g127
sg6
g140
sa(dp1489
g4
g127
sg6
g142
sa(dp1490
g4
g127
sg6
g144
sa(dp1491
g4
g127
sg6
g146
sa(dp1492
g4
g127
sg6
g148
sa(dp1493
g4
g127
sg6
g150
sa(dp1494
g4
g127
sg6
g69
sasg338
(lp1495
(dp1496
g4
g317
sg6
g318
sa(dp1497
g4
g317
sg6
g320
sa(dp1498
g4
g317
sg6
g322
sa(dp1499
g4
g317
sg6
g314
sa(dp1500
g4
g317
sg6
g325
sa(dp1501
g4
g317
sg6
g177
sa(dp1502
g4
g317
sg6
g328
sa(dp1503
g4
g317
sg6
g142
sa(dp1504
g4
g317
sg6
g331
sa(dp1505
g4
g317
sg6
g254
sa(dp1506
g4
g317
sg6
g334
sa(dp1507
g4
g317
sg6
g336
sa(dp1508
g4
g317
sg6
g338
sa(dp1509
g4
g317
sg6
g340
sa(dp1510
g4
g317
sg6
g342
sasg77
(lp1511
(dp1512
g4
g72
sg6
g73
sa(dp1513
g4
g72
sg6
g75
sa(dp1514
g4
g72
sg6
g77
sa(dp1515
g4
g72
sg6
g69
sa(dp1516
g4
g72
sg6
g9
sa(dp1517
g4
g72
sg6
g81
sa(dp1518
g4
g72
sg6
g83
sa(dp1519
g4
g72
sg6
g85
sa(dp1520
g4
g72
sg6
g87
sa(dp1521
g4
g72
sg6
g89
sa(dp1522
g4
g72
sg6
g91
sa(dp1523
g4
g72
sg6
g93
sa(dp1524
g4
g72
sg6
g95
sa(dp1525
g4
g72
sg6
g97
sa(dp1526
g4
g72
sg6
g99
sa(dp1527
g4
g72
sg6
g101
sa(dp1528
g4
g72
sg6
g103
sa(dp1529
g4
g72
sg6
g105
sa(dp1530
g4
g72
sg6
g107
sa(dp1531
g4
g72
sg6
g109
sa(dp1532
g4
g72
sg6
g38
sa(dp1533
g4
g72
sg6
g112
sa(dp1534
g4
g72
sg6
g34
sa(dp1535
g4
g72
sg6
g115
sa(dp1536
g4
g72
sg6
g117
sa(dp1537
g4
g72
sg6
g119
sa(dp1538
g4
g72
sg6
g121
sa(dp1539
g4
g72
sg6
g123
sa(dp1540
g4
g72
sg6
g125
sa(dp1541
g4
g234
sg6
g235
sa(dp1542
g4
g234
sg6
g237
sa(dp1543
g4
g234
sg6
g239
sa(dp1544
g4
g234
sg6
g241
sa(dp1545
g4
g234
sg6
g243
sa(dp1546
g4
g234
sg6
g245
sa(dp1547
g4
g234
sg6
g247
sa(dp1548
g4
g234
sg6
g249
sa(dp1549
g4
g234
sg6
g231
sa(dp1550
g4
g234
sg6
g252
sa(dp1551
g4
g234
sg6
g254
sa(dp1552
g4
g234
sg6
g256
sa(dp1553
g4
g234
sg6
g258
sa(dp1554
g4
g234
sg6
g260
sa(dp1555
g4
g234
sg6
g77
sasg336
(lp1556
(dp1557
g4
g317
sg6
g318
sa(dp1558
g4
g317
sg6
g320
sa(dp1559
g4
g317
sg6
g322
sa(dp1560
g4
g317
sg6
g314
sa(dp1561
g4
g317
sg6
g325
sa(dp1562
g4
g317
sg6
g177
sa(dp1563
g4
g317
sg6
g328
sa(dp1564
g4
g317
sg6
g142
sa(dp1565
g4
g317
sg6
g331
sa(dp1566
g4
g317
sg6
g254
sa(dp1567
g4
g317
sg6
g334
sa(dp1568
g4
g317
sg6
g336
sa(dp1569
g4
g317
sg6
g338
sa(dp1570
g4
g317
sg6
g340
sa(dp1571
g4
g317
sg6
g342
sasg249
(lp1572
(dp1573
g4
g234
sg6
g235
sa(dp1574
g4
g234
sg6
g237
sa(dp1575
g4
g234
sg6
g239
sa(dp1576
g4
g234
sg6
g241
sa(dp1577
g4
g234
sg6
g243
sa(dp1578
g4
g234
sg6
g245
sa(dp1579
g4
g234
sg6
g247
sa(dp1580
g4
g234
sg6
g249
sa(dp1581
g4
g234
sg6
g231
sa(dp1582
g4
g234
sg6
g252
sa(dp1583
g4
g234
sg6
g254
sa(dp1584
g4
g234
sg6
g256
sa(dp1585
g4
g234
sg6
g258
sa(dp1586
g4
g234
sg6
g260
sa(dp1587
g4
g234
sg6
g77
sasg89
(lp1588
(dp1589
g4
g72
sg6
g73
sa(dp1590
g4
g72
sg6
g75
sa(dp1591
g4
g72
sg6
g77
sa(dp1592
g4
g72
sg6
g69
sa(dp1593
g4
g72
sg6
g9
sa(dp1594
g4
g72
sg6
g81
sa(dp1595
g4
g72
sg6
g83
sa(dp1596
g4
g72
sg6
g85
sa(dp1597
g4
g72
sg6
g87
sa(dp1598
g4
g72
sg6
g89
sa(dp1599
g4
g72
sg6
g91
sa(dp1600
g4
g72
sg6
g93
sa(dp1601
g4
g72
sg6
g95
sa(dp1602
g4
g72
sg6
g97
sa(dp1603
g4
g72
sg6
g99
sa(dp1604
g4
g72
sg6
g101
sa(dp1605
g4
g72
sg6
g103
sa(dp1606
g4
g72
sg6
g105
sa(dp1607
g4
g72
sg6
g107
sa(dp1608
g4
g72
sg6
g109
sa(dp1609
g4
g72
sg6
g38
sa(dp1610
g4
g72
sg6
g112
sa(dp1611
g4
g72
sg6
g34
sa(dp1612
g4
g72
sg6
g115
sa(dp1613
g4
g72
sg6
g117
sa(dp1614
g4
g72
sg6
g119
sa(dp1615
g4
g72
sg6
g121
sa(dp1616
g4
g72
sg6
g123
sa(dp1617
g4
g72
sg6
g125
sasg7
(lp1618
(dp1619
g4
g154
sg6
g155
sa(dp1620
g4
g154
sg6
g157
sa(dp1621
g4
g154
sg6
g159
sa(dp1622
g4
g154
sg6
g161
sa(dp1623
g4
g154
sg6
g163
sa(dp1624
g4
g154
sg6
g165
sa(dp1625
g4
g154
sg6
g167
sa(dp1626
g4
g154
sg6
g169
sa(dp1627
g4
g154
sg6
g128
sa(dp1628
g4
g154
sg6
g130
sa(dp1629
g4
g154
sg6
g132
sa(dp1630
g4
g154
sg6
g134
sa(dp1631
g4
g154
sg6
g136
sa(dp1632
g4
g154
sg6
g138
sa(dp1633
g4
g154
sg6
g177
sa(dp1634
g4
g154
sg6
g179
sa(dp1635
g4
g154
sg6
g181
sa(dp1636
g4
g154
sg6
g183
sa(dp1637
g4
g154
sg6
g7
sa(dp1638
g4
g154
sg6
g186
sa(dp1639
g4
g154
sg6
g81
sa(dp1640
g4
g5
sg6
g7
sa(dp1641
g4
g5
sg6
g9
sa(dp1642
g4
g5
sg6
g11
sa(dp1643
g4
g5
sg6
g13
sa(dp1644
g4
g5
sg6
g15
sa(dp1645
g4
g5
sg6
g17
sa(dp1646
g4
g5
sg6
g19
sa(dp1647
g4
g5
sg6
g21
sa(dp1648
g4
g5
sg6
g23
sa(dp1649
g4
g5
sg6
g25
sa(dp1650
g4
g5
sg6
g27
sa(dp1651
g4
g5
sg6
g29
sa(dp1652
g4
g5
sg6
g1
sa(dp1653
g4
g5
sg6
g32
sa(dp1654
g4
g5
sg6
g34
sa(dp1655
g4
g5
sg6
g36
sa(dp1656
g4
g5
sg6
g38
sa(dp1657
g4
g5
sg6
g40
sa(dp1658
g4
g5
sg6
g42
sa(dp1659
g4
g5
sg6
g44
sa(dp1660
g4
g5
sg6
g46
sasg334
(lp1661
(dp1662
g4
g317
sg6
g318
sa(dp1663
g4
g317
sg6
g320
sa(dp1664
g4
g317
sg6
g322
sa(dp1665
g4
g317
sg6
g314
sa(dp1666
g4
g317
sg6
g325
sa(dp1667
g4
g317
sg6
g177
sa(dp1668
g4
g317
sg6
g328
sa(dp1669
g4
g317
sg6
g142
sa(dp1670
g4
g317
sg6
g331
sa(dp1671
g4
g317
sg6
g254
sa(dp1672
g4
g317
sg6
g334
sa(dp1673
g4
g317
sg6
g336
sa(dp1674
g4
g317
sg6
g338
sa(dp1675
g4
g317
sg6
g340
sa(dp1676
g4
g317
sg6
g342
sasg128
(lp1677
(dp1678
g4
g154
sg6
g155
sa(dp1679
g4
g154
sg6
g157
sa(dp1680
g4
g154
sg6
g159
sa(dp1681
g4
g154
sg6
g161
sa(dp1682
g4
g154
sg6
g163
sa(dp1683
g4
g154
sg6
g165
sa(dp1684
g4
g154
sg6
g167
sa(dp1685
g4
g154
sg6
g169
sa(dp1686
g4
g154
sg6
g128
sa(dp1687
g4
g154
sg6
g130
sa(dp1688
g4
g154
sg6
g132
sa(dp1689
g4
g154
sg6
g134
sa(dp1690
g4
g154
sg6
g136
sa(dp1691
g4
g154
sg6
g138
sa(dp1692
g4
g154
sg6
g177
sa(dp1693
g4
g154
sg6
g179
sa(dp1694
g4
g154
sg6
g181
sa(dp1695
g4
g154
sg6
g183
sa(dp1696
g4
g154
sg6
g7
sa(dp1697
g4
g154
sg6
g186
sa(dp1698
g4
g154
sg6
g81
sa(dp1699
g4
g127
sg6
g128
sa(dp1700
g4
g127
sg6
g130
sa(dp1701
g4
g127
sg6
g132
sa(dp1702
g4
g127
sg6
g134
sa(dp1703
g4
g127
sg6
g136
sa(dp1704
g4
g127
sg6
g138
sa(dp1705
g4
g127
sg6
g140
sa(dp1706
g4
g127
sg6
g142
sa(dp1707
g4
g127
sg6
g144
sa(dp1708
g4
g127
sg6
g146
sa(dp1709
g4
g127
sg6
g148
sa(dp1710
g4
g127
sg6
g150
sa(dp1711
g4
g127
sg6
g69
sasg19
(lp1712
(dp1713
g4
g5
sg6
g7
sa(dp1714
g4
g5
sg6
g9
sa(dp1715
g4
g5
sg6
g11
sa(dp1716
g4
g5
sg6
g13
sa(dp1717
g4
g5
sg6
g15
sa(dp1718
g4
g5
sg6
g17
sa(dp1719
g4
g5
sg6
g19
sa(dp1720
g4
g5
sg6
g21
sa(dp1721
g4
g5
sg6
g23
sa(dp1722
g4
g5
sg6
g25
sa(dp1723
g4
g5
sg6
g27
sa(dp1724
g4
g5
sg6
g29
sa(dp1725
g4
g5
sg6
g1
sa(dp1726
g4
g5
sg6
g32
sa(dp1727
g4
g5
sg6
g34
sa(dp1728
g4
g5
sg6
g36
sa(dp1729
g4
g5
sg6
g38
sa(dp1730
g4
g5
sg6
g40
sa(dp1731
g4
g5
sg6
g42
sa(dp1732
g4
g5
sg6
g44
sa(dp1733
g4
g5
sg6
g46
sasg117
(lp1734
(dp1735
g4
g72
sg6
g73
sa(dp1736
g4
g72
sg6
g75
sa(dp1737
g4
g72
sg6
g77
sa(dp1738
g4
g72
sg6
g69
sa(dp1739
g4
g72
sg6
g9
sa(dp1740
g4
g72
sg6
g81
sa(dp1741
g4
g72
sg6
g83
sa(dp1742
g4
g72
sg6
g85
sa(dp1743
g4
g72
sg6
g87
sa(dp1744
g4
g72
sg6
g89
sa(dp1745
g4
g72
sg6
g91
sa(dp1746
g4
g72
sg6
g93
sa(dp1747
g4
g72
sg6
g95
sa(dp1748
g4
g72
sg6
g97
sa(dp1749
g4
g72
sg6
g99
sa(dp1750
g4
g72
sg6
g101
sa(dp1751
g4
g72
sg6
g103
sa(dp1752
g4
g72
sg6
g105
sa(dp1753
g4
g72
sg6
g107
sa(dp1754
g4
g72
sg6
g109
sa(dp1755
g4
g72
sg6
g38
sa(dp1756
g4
g72
sg6
g112
sa(dp1757
g4
g72
sg6
g34
sa(dp1758
g4
g72
sg6
g115
sa(dp1759
g4
g72
sg6
g117
sa(dp1760
g4
g72
sg6
g119
sa(dp1761
g4
g72
sg6
g121
sa(dp1762
g4
g72
sg6
g123
sa(dp1763
g4
g72
sg6
g125
sasg331
(lp1764
(dp1765
g4
g317
sg6
g318
sa(dp1766
g4
g317
sg6
g320
sa(dp1767
g4
g317
sg6
g322
sa(dp1768
g4
g317
sg6
g314
sa(dp1769
g4
g317
sg6
g325
sa(dp1770
g4
g317
sg6
g177
sa(dp1771
g4
g317
sg6
g328
sa(dp1772
g4
g317
sg6
g142
sa(dp1773
g4
g317
sg6
g331
sa(dp1774
g4
g317
sg6
g254
sa(dp1775
g4
g317
sg6
g334
sa(dp1776
g4
g317
sg6
g336
sa(dp1777
g4
g317
sg6
g338
sa(dp1778
g4
g317
sg6
g340
sa(dp1779
g4
g317
sg6
g342
sasg42
(lp1780
(dp1781
g4
g5
sg6
g7
sa(dp1782
g4
g5
sg6
g9
sa(dp1783
g4
g5
sg6
g11
sa(dp1784
g4
g5
sg6
g13
sa(dp1785
g4
g5
sg6
g15
sa(dp1786
g4
g5
sg6
g17
sa(dp1787
g4
g5
sg6
g19
sa(dp1788
g4
g5
sg6
g21
sa(dp1789
g4
g5
sg6
g23
sa(dp1790
g4
g5
sg6
g25
sa(dp1791
g4
g5
sg6
g27
sa(dp1792
g4
g5
sg6
g29
sa(dp1793
g4
g5
sg6
g1
sa(dp1794
g4
g5
sg6
g32
sa(dp1795
g4
g5
sg6
g34
sa(dp1796
g4
g5
sg6
g36
sa(dp1797
g4
g5
sg6
g38
sa(dp1798
g4
g5
sg6
g40
sa(dp1799
g4
g5
sg6
g42
sa(dp1800
g4
g5
sg6
g44
sa(dp1801
g4
g5
sg6
g46
sasg260
(lp1802
(dp1803
g4
g234
sg6
g235
sa(dp1804
g4
g234
sg6
g237
sa(dp1805
g4
g234
sg6
g239
sa(dp1806
g4
g234
sg6
g241
sa(dp1807
g4
g234
sg6
g243
sa(dp1808
g4
g234
sg6
g245
sa(dp1809
g4
g234
sg6
g247
sa(dp1810
g4
g234
sg6
g249
sa(dp1811
g4
g234
sg6
g231
sa(dp1812
g4
g234
sg6
g252
sa(dp1813
g4
g234
sg6
g254
sa(dp1814
g4
g234
sg6
g256
sa(dp1815
g4
g234
sg6
g258
sa(dp1816
g4
g234
sg6
g260
sa(dp1817
g4
g234
sg6
g77
sasg245
(lp1818
(dp1819
g4
g234
sg6
g235
sa(dp1820
g4
g234
sg6
g237
sa(dp1821
g4
g234
sg6
g239
sa(dp1822
g4
g234
sg6
g241
sa(dp1823
g4
g234
sg6
g243
sa(dp1824
g4
g234
sg6
g245
sa(dp1825
g4
g234
sg6
g247
sa(dp1826
g4
g234
sg6
g249
sa(dp1827
g4
g234
sg6
g231
sa(dp1828
g4
g234
sg6
g252
sa(dp1829
g4
g234
sg6
g254
sa(dp1830
g4
g234
sg6
g256
sa(dp1831
g4
g234
sg6
g258
sa(dp1832
g4
g234
sg6
g260
sa(dp1833
g4
g234
sg6
g77
sasg9
(lp1834
(dp1835
g4
g72
sg6
g73
sa(dp1836
g4
g72
sg6
g75
sa(dp1837
g4
g72
sg6
g77
sa(dp1838
g4
g72
sg6
g69
sa(dp1839
g4
g72
sg6
g9
sa(dp1840
g4
g72
sg6
g81
sa(dp1841
g4
g72
sg6
g83
sa(dp1842
g4
g72
sg6
g85
sa(dp1843
g4
g72
sg6
g87
sa(dp1844
g4
g72
sg6
g89
sa(dp1845
g4
g72
sg6
g91
sa(dp1846
g4
g72
sg6
g93
sa(dp1847
g4
g72
sg6
g95
sa(dp1848
g4
g72
sg6
g97
sa(dp1849
g4
g72
sg6
g99
sa(dp1850
g4
g72
sg6
g101
sa(dp1851
g4
g72
sg6
g103
sa(dp1852
g4
g72
sg6
g105
sa(dp1853
g4
g72
sg6
g107
sa(dp1854
g4
g72
sg6
g109
sa(dp1855
g4
g72
sg6
g38
sa(dp1856
g4
g72
sg6
g112
sa(dp1857
g4
g72
sg6
g34
sa(dp1858
g4
g72
sg6
g115
sa(dp1859
g4
g72
sg6
g117
sa(dp1860
g4
g72
sg6
g119
sa(dp1861
g4
g72
sg6
g121
sa(dp1862
g4
g72
sg6
g123
sa(dp1863
g4
g72
sg6
g125
sa(dp1864
g4
g5
sg6
g7
sa(dp1865
g4
g5
sg6
g9
sa(dp1866
g4
g5
sg6
g11
sa(dp1867
g4
g5
sg6
g13
sa(dp1868
g4
g5
sg6
g15
sa(dp1869
g4
g5
sg6
g17
sa(dp1870
g4
g5
sg6
g19
sa(dp1871
g4
g5
sg6
g21
sa(dp1872
g4
g5
sg6
g23
sa(dp1873
g4
g5
sg6
g25
sa(dp1874
g4
g5
sg6
g27
sa(dp1875
g4
g5
sg6
g29
sa(dp1876
g4
g5
sg6
g1
sa(dp1877
g4
g5
sg6
g32
sa(dp1878
g4
g5
sg6
g34
sa(dp1879
g4
g5
sg6
g36
sa(dp1880
g4
g5
sg6
g38
sa(dp1881
g4
g5
sg6
g40
sa(dp1882
g4
g5
sg6
g42
sa(dp1883
g4
g5
sg6
g44
sa(dp1884
g4
g5
sg6
g46
sasg183
(lp1885
(dp1886
g4
g154
sg6
g155
sa(dp1887
g4
g154
sg6
g157
sa(dp1888
g4
g154
sg6
g159
sa(dp1889
g4
g154
sg6
g161
sa(dp1890
g4
g154
sg6
g163
sa(dp1891
g4
g154
sg6
g165
sa(dp1892
g4
g154
sg6
g167
sa(dp1893
g4
g154
sg6
g169
sa(dp1894
g4
g154
sg6
g128
sa(dp1895
g4
g154
sg6
g130
sa(dp1896
g4
g154
sg6
g132
sa(dp1897
g4
g154
sg6
g134
sa(dp1898
g4
g154
sg6
g136
sa(dp1899
g4
g154
sg6
g138
sa(dp1900
g4
g154
sg6
g177
sa(dp1901
g4
g154
sg6
g179
sa(dp1902
g4
g154
sg6
g181
sa(dp1903
g4
g154
sg6
g183
sa(dp1904
g4
g154
sg6
g7
sa(dp1905
g4
g154
sg6
g186
sa(dp1906
g4
g154
sg6
g81
sasg134
(lp1907
(dp1908
g4
g154
sg6
g155
sa(dp1909
g4
g154
sg6
g157
sa(dp1910
g4
g154
sg6
g159
sa(dp1911
g4
g154
sg6
g161
sa(dp1912
g4
g154
sg6
g163
sa(dp1913
g4
g154
sg6
g165
sa(dp1914
g4
g154
sg6
g167
sa(dp1915
g4
g154
sg6
g169
sa(dp1916
g4
g154
sg6
g128
sa(dp1917
g4
g154
sg6
g130
sa(dp1918
g4
g154
sg6
g132
sa(dp1919
g4
g154
sg6
g134
sa(dp1920
g4
g154
sg6
g136
sa(dp1921
g4
g154
sg6
g138
sa(dp1922
g4
g154
sg6
g177
sa(dp1923
g4
g154
sg6
g179
sa(dp1924
g4
g154
sg6
g181
sa(dp1925
g4
g154
sg6
g183
sa(dp1926
g4
g154
sg6
g7
sa(dp1927
g4
g154
sg6
g186
sa(dp1928
g4
g154
sg6
g81
sa(dp1929
g4
g127
sg6
g128
sa(dp1930
g4
g127
sg6
g130
sa(dp1931
g4
g127
sg6
g132
sa(dp1932
g4
g127
sg6
g134
sa(dp1933
g4
g127
sg6
g136
sa(dp1934
g4
g127
sg6
g138
sa(dp1935
g4
g127
sg6
g140
sa(dp1936
g4
g127
sg6
g142
sa(dp1937
g4
g127
sg6
g144
sa(dp1938
g4
g127
sg6
g146
sa(dp1939
g4
g127
sg6
g148
sa(dp1940
g4
g127
sg6
g150
sa(dp1941
g4
g127
sg6
g69
sasg163
(lp1942
(dp1943
g4
g154
sg6
g155
sa(dp1944
g4
g154
sg6
g157
sa(dp1945
g4
g154
sg6
g159
sa(dp1946
g4
g154
sg6
g161
sa(dp1947
g4
g154
sg6
g163
sa(dp1948
g4
g154
sg6
g165
sa(dp1949
g4
g154
sg6
g167
sa(dp1950
g4
g154
sg6
g169
sa(dp1951
g4
g154
sg6
g128
sa(dp1952
g4
g154
sg6
g130
sa(dp1953
g4
g154
sg6
g132
sa(dp1954
g4
g154
sg6
g134
sa(dp1955
g4
g154
sg6
g136
sa(dp1956
g4
g154
sg6
g138
sa(dp1957
g4
g154
sg6
g177
sa(dp1958
g4
g154
sg6
g179
sa(dp1959
g4
g154
sg6
g181
sa(dp1960
g4
g154
sg6
g183
sa(dp1961
g4
g154
sg6
g7
sa(dp1962
g4
g154
sg6
g186
sa(dp1963
g4
g154
sg6
g81
sasg123
(lp1964
(dp1965
g4
g72
sg6
g73
sa(dp1966
g4
g72
sg6
g75
sa(dp1967
g4
g72
sg6
g77
sa(dp1968
g4
g72
sg6
g69
sa(dp1969
g4
g72
sg6
g9
sa(dp1970
g4
g72
sg6
g81
sa(dp1971
g4
g72
sg6
g83
sa(dp1972
g4
g72
sg6
g85
sa(dp1973
g4
g72
sg6
g87
sa(dp1974
g4
g72
sg6
g89
sa(dp1975
g4
g72
sg6
g91
sa(dp1976
g4
g72
sg6
g93
sa(dp1977
g4
g72
sg6
g95
sa(dp1978
g4
g72
sg6
g97
sa(dp1979
g4
g72
sg6
g99
sa(dp1980
g4
g72
sg6
g101
sa(dp1981
g4
g72
sg6
g103
sa(dp1982
g4
g72
sg6
g105
sa(dp1983
g4
g72
sg6
g107
sa(dp1984
g4
g72
sg6
g109
sa(dp1985
g4
g72
sg6
g38
sa(dp1986
g4
g72
sg6
g112
sa(dp1987
g4
g72
sg6
g34
sa(dp1988
g4
g72
sg6
g115
sa(dp1989
g4
g72
sg6
g117
sa(dp1990
g4
g72
sg6
g119
sa(dp1991
g4
g72
sg6
g121
sa(dp1992
g4
g72
sg6
g123
sa(dp1993
g4
g72
sg6
g125
sasg237
(lp1994
(dp1995
g4
g234
sg6
g235
sa(dp1996
g4
g234
sg6
g237
sa(dp1997
g4
g234
sg6
g239
sa(dp1998
g4
g234
sg6
g241
sa(dp1999
g4
g234
sg6
g243
sa(dp2000
g4
g234
sg6
g245
sa(dp2001
g4
g234
sg6
g247
sa(dp2002
g4
g234
sg6
g249
sa(dp2003
g4
g234
sg6
g231
sa(dp2004
g4
g234
sg6
g252
sa(dp2005
g4
g234
sg6
g254
sa(dp2006
g4
g234
sg6
g256
sa(dp2007
g4
g234
sg6
g258
sa(dp2008
g4
g234
sg6
g260
sa(dp2009
g4
g234
sg6
g77
sasg258
(lp2010
(dp2011
g4
g234
sg6
g235
sa(dp2012
g4
g234
sg6
g237
sa(dp2013
g4
g234
sg6
g239
sa(dp2014
g4
g234
sg6
g241
sa(dp2015
g4
g234
sg6
g243
sa(dp2016
g4
g234
sg6
g245
sa(dp2017
g4
g234
sg6
g247
sa(dp2018
g4
g234
sg6
g249
sa(dp2019
g4
g234
sg6
g231
sa(dp2020
g4
g234
sg6
g252
sa(dp2021
g4
g234
sg6
g254
sa(dp2022
g4
g234
sg6
g256
sa(dp2023
g4
g234
sg6
g258
sa(dp2024
g4
g234
sg6
g260
sa(dp2025
g4
g234
sg6
g77
sasg21
(lp2026
(dp2027
g4
g5
sg6
g7
sa(dp2028
g4
g5
sg6
g9
sa(dp2029
g4
g5
sg6
g11
sa(dp2030
g4
g5
sg6
g13
sa(dp2031
g4
g5
sg6
g15
sa(dp2032
g4
g5
sg6
g17
sa(dp2033
g4
g5
sg6
g19
sa(dp2034
g4
g5
sg6
g21
sa(dp2035
g4
g5
sg6
g23
sa(dp2036
g4
g5
sg6
g25
sa(dp2037
g4
g5
sg6
g27
sa(dp2038
g4
g5
sg6
g29
sa(dp2039
g4
g5
sg6
g1
sa(dp2040
g4
g5
sg6
g32
sa(dp2041
g4
g5
sg6
g34
sa(dp2042
g4
g5
sg6
g36
sa(dp2043
g4
g5
sg6
g38
sa(dp2044
g4
g5
sg6
g40
sa(dp2045
g4
g5
sg6
g42
sa(dp2046
g4
g5
sg6
g44
sa(dp2047
g4
g5
sg6
g46
sasg38
(lp2048
(dp2049
g4
g72
sg6
g73
sa(dp2050
g4
g72
sg6
g75
sa(dp2051
g4
g72
sg6
g77
sa(dp2052
g4
g72
sg6
g69
sa(dp2053
g4
g72
sg6
g9
sa(dp2054
g4
g72
sg6
g81
sa(dp2055
g4
g72
sg6
g83
sa(dp2056
g4
g72
sg6
g85
sa(dp2057
g4
g72
sg6
g87
sa(dp2058
g4
g72
sg6
g89
sa(dp2059
g4
g72
sg6
g91
sa(dp2060
g4
g72
sg6
g93
sa(dp2061
g4
g72
sg6
g95
sa(dp2062
g4
g72
sg6
g97
sa(dp2063
g4
g72
sg6
g99
sa(dp2064
g4
g72
sg6
g101
sa(dp2065
g4
g72
sg6
g103
sa(dp2066
g4
g72
sg6
g105
sa(dp2067
g4
g72
sg6
g107
sa(dp2068
g4
g72
sg6
g109
sa(dp2069
g4
g72
sg6
g38
sa(dp2070
g4
g72
sg6
g112
sa(dp2071
g4
g72
sg6
g34
sa(dp2072
g4
g72
sg6
g115
sa(dp2073
g4
g72
sg6
g117
sa(dp2074
g4
g72
sg6
g119
sa(dp2075
g4
g72
sg6
g121
sa(dp2076
g4
g72
sg6
g123
sa(dp2077
g4
g72
sg6
g125
sa(dp2078
g4
g5
sg6
g7
sa(dp2079
g4
g5
sg6
g9
sa(dp2080
g4
g5
sg6
g11
sa(dp2081
g4
g5
sg6
g13
sa(dp2082
g4
g5
sg6
g15
sa(dp2083
g4
g5
sg6
g17
sa(dp2084
g4
g5
sg6
g19
sa(dp2085
g4
g5
sg6
g21
sa(dp2086
g4
g5
sg6
g23
sa(dp2087
g4
g5
sg6
g25
sa(dp2088
g4
g5
sg6
g27
sa(dp2089
g4
g5
sg6
g29
sa(dp2090
g4
g5
sg6
g1
sa(dp2091
g4
g5
sg6
g32
sa(dp2092
g4
g5
sg6
g34
sa(dp2093
g4
g5
sg6
g36
sa(dp2094
g4
g5
sg6
g38
sa(dp2095
g4
g5
sg6
g40
sa(dp2096
g4
g5
sg6
g42
sa(dp2097
g4
g5
sg6
g44
sa(dp2098
g4
g5
sg6
g46
sasg130
(lp2099
(dp2100
g4
g154
sg6
g155
sa(dp2101
g4
g154
sg6
g157
sa(dp2102
g4
g154
sg6
g159
sa(dp2103
g4
g154
sg6
g161
sa(dp2104
g4
g154
sg6
g163
sa(dp2105
g4
g154
sg6
g165
sa(dp2106
g4
g154
sg6
g167
sa(dp2107
g4
g154
sg6
g169
sa(dp2108
g4
g154
sg6
g128
sa(dp2109
g4
g154
sg6
g130
sa(dp2110
g4
g154
sg6
g132
sa(dp2111
g4
g154
sg6
g134
sa(dp2112
g4
g154
sg6
g136
sa(dp2113
g4
g154
sg6
g138
sa(dp2114
g4
g154
sg6
g177
sa(dp2115
g4
g154
sg6
g179
sa(dp2116
g4
g154
sg6
g181
sa(dp2117
g4
g154
sg6
g183
sa(dp2118
g4
g154
sg6
g7
sa(dp2119
g4
g154
sg6
g186
sa(dp2120
g4
g154
sg6
g81
sa(dp2121
g4
g127
sg6
g128
sa(dp2122
g4
g127
sg6
g130
sa(dp2123
g4
g127
sg6
g132
sa(dp2124
g4
g127
sg6
g134
sa(dp2125
g4
g127
sg6
g136
sa(dp2126
g4
g127
sg6
g138
sa(dp2127
g4
g127
sg6
g140
sa(dp2128
g4
g127
sg6
g142
sa(dp2129
g4
g127
sg6
g144
sa(dp2130
g4
g127
sg6
g146
sa(dp2131
g4
g127
sg6
g148
sa(dp2132
g4
g127
sg6
g150
sa(dp2133
g4
g127
sg6
g69
sasg32
(lp2134
(dp2135
g4
g5
sg6
g7
sa(dp2136
g4
g5
sg6
g9
sa(dp2137
g4
g5
sg6
g11
sa(dp2138
g4
g5
sg6
g13
sa(dp2139
g4
g5
sg6
g15
sa(dp2140
g4
g5
sg6
g17
sa(dp2141
g4
g5
sg6
g19
sa(dp2142
g4
g5
sg6
g21
sa(dp2143
g4
g5
sg6
g23
sa(dp2144
g4
g5
sg6
g25
sa(dp2145
g4
g5
sg6
g27
sa(dp2146
g4
g5
sg6
g29
sa(dp2147
g4
g5
sg6
g1
sa(dp2148
g4
g5
sg6
g32
sa(dp2149
g4
g5
sg6
g34
sa(dp2150
g4
g5
sg6
g36
sa(dp2151
g4
g5
sg6
g38
sa(dp2152
g4
g5
sg6
g40
sa(dp2153
g4
g5
sg6
g42
sa(dp2154
g4
g5
sg6
g44
sa(dp2155
g4
g5
sg6
g46
sasg44
(lp2156
(dp2157
g4
g5
sg6
g7
sa(dp2158
g4
g5
sg6
g9
sa(dp2159
g4
g5
sg6
g11
sa(dp2160
g4
g5
sg6
g13
sa(dp2161
g4
g5
sg6
g15
sa(dp2162
g4
g5
sg6
g17
sa(dp2163
g4
g5
sg6
g19
sa(dp2164
g4
g5
sg6
g21
sa(dp2165
g4
g5
sg6
g23
sa(dp2166
g4
g5
sg6
g25
sa(dp2167
g4
g5
sg6
g27
sa(dp2168
g4
g5
sg6
g29
sa(dp2169
g4
g5
sg6
g1
sa(dp2170
g4
g5
sg6
g32
sa(dp2171
g4
g5
sg6
g34
sa(dp2172
g4
g5
sg6
g36
sa(dp2173
g4
g5
sg6
g38
sa(dp2174
g4
g5
sg6
g40
sa(dp2175
g4
g5
sg6
g42
sa(dp2176
g4
g5
sg6
g44
sa(dp2177
g4
g5
sg6
g46
sasg25
(lp2178
(dp2179
g4
g5
sg6
g7
sa(dp2180
g4
g5
sg6
g9
sa(dp2181
g4
g5
sg6
g11
sa(dp2182
g4
g5
sg6
g13
sa(dp2183
g4
g5
sg6
g15
sa(dp2184
g4
g5
sg6
g17
sa(dp2185
g4
g5
sg6
g19
sa(dp2186
g4
g5
sg6
g21
sa(dp2187
g4
g5
sg6
g23
sa(dp2188
g4
g5
sg6
g25
sa(dp2189
g4
g5
sg6
g27
sa(dp2190
g4
g5
sg6
g29
sa(dp2191
g4
g5
sg6
g1
sa(dp2192
g4
g5
sg6
g32
sa(dp2193
g4
g5
sg6
g34
sa(dp2194
g4
g5
sg6
g36
sa(dp2195
g4
g5
sg6
g38
sa(dp2196
g4
g5
sg6
g40
sa(dp2197
g4
g5
sg6
g42
sa(dp2198
g4
g5
sg6
g44
sa(dp2199
g4
g5
sg6
g46
sasg93
(lp2200
(dp2201
g4
g72
sg6
g73
sa(dp2202
g4
g72
sg6
g75
sa(dp2203
g4
g72
sg6
g77
sa(dp2204
g4
g72
sg6
g69
sa(dp2205
g4
g72
sg6
g9
sa(dp2206
g4
g72
sg6
g81
sa(dp2207
g4
g72
sg6
g83
sa(dp2208
g4
g72
sg6
g85
sa(dp2209
g4
g72
sg6
g87
sa(dp2210
g4
g72
sg6
g89
sa(dp2211
g4
g72
sg6
g91
sa(dp2212
g4
g72
sg6
g93
sa(dp2213
g4
g72
sg6
g95
sa(dp2214
g4
g72
sg6
g97
sa(dp2215
g4
g72
sg6
g99
sa(dp2216
g4
g72
sg6
g101
sa(dp2217
g4
g72
sg6
g103
sa(dp2218
g4
g72
sg6
g105
sa(dp2219
g4
g72
sg6
g107
sa(dp2220
g4
g72
sg6
g109
sa(dp2221
g4
g72
sg6
g38
sa(dp2222
g4
g72
sg6
g112
sa(dp2223
g4
g72
sg6
g34
sa(dp2224
g4
g72
sg6
g115
sa(dp2225
g4
g72
sg6
g117
sa(dp2226
g4
g72
sg6
g119
sa(dp2227
g4
g72
sg6
g121
sa(dp2228
g4
g72
sg6
g123
sa(dp2229
g4
g72
sg6
g125
sasg81
(lp2230
(dp2231
g4
g72
sg6
g73
sa(dp2232
g4
g72
sg6
g75
sa(dp2233
g4
g72
sg6
g77
sa(dp2234
g4
g72
sg6
g69
sa(dp2235
g4
g72
sg6
g9
sa(dp2236
g4
g72
sg6
g81
sa(dp2237
g4
g72
sg6
g83
sa(dp2238
g4
g72
sg6
g85
sa(dp2239
g4
g72
sg6
g87
sa(dp2240
g4
g72
sg6
g89
sa(dp2241
g4
g72
sg6
g91
sa(dp2242
g4
g72
sg6
g93
sa(dp2243
g4
g72
sg6
g95
sa(dp2244
g4
g72
sg6
g97
sa(dp2245
g4
g72
sg6
g99
sa(dp2246
g4
g72
sg6
g101
sa(dp2247
g4
g72
sg6
g103
sa(dp2248
g4
g72
sg6
g105
sa(dp2249
g4
g72
sg6
g107
sa(dp2250
g4
g72
sg6
g109
sa(dp2251
g4
g72
sg6
g38
sa(dp2252
g4
g72
sg6
g112
sa(dp2253
g4
g72
sg6
g34
sa(dp2254
g4
g72
sg6
g115
sa(dp2255
g4
g72
sg6
g117
sa(dp2256
g4
g72
sg6
g119
sa(dp2257
g4
g72
sg6
g121
sa(dp2258
g4
g72
sg6
g123
sa(dp2259
g4
g72
sg6
g125
sa(dp2260
g4
g154
sg6
g155
sa(dp2261
g4
g154
sg6
g157
sa(dp2262
g4
g154
sg6
g159
sa(dp2263
g4
g154
sg6
g161
sa(dp2264
g4
g154
sg6
g163
sa(dp2265
g4
g154
sg6
g165
sa(dp2266
g4
g154
sg6
g167
sa(dp2267
g4
g154
sg6
g169
sa(dp2268
g4
g154
sg6
g128
sa(dp2269
g4
g154
sg6
g130
sa(dp2270
g4
g154
sg6
g132
sa(dp2271
g4
g154
sg6
g134
sa(dp2272
g4
g154
sg6
g136
sa(dp2273
g4
g154
sg6
g138
sa(dp2274
g4
g154
sg6
g177
sa(dp2275
g4
g154
sg6
g179
sa(dp2276
g4
g154
sg6
g181
sa(dp2277
g4
g154
sg6
g183
sa(dp2278
g4
g154
sg6
g7
sa(dp2279
g4
g154
sg6
g186
sa(dp2280
g4
g154
sg6
g81
sasg125
(lp2281
(dp2282
g4
g72
sg6
g73
sa(dp2283
g4
g72
sg6
g75
sa(dp2284
g4
g72
sg6
g77
sa(dp2285
g4
g72
sg6
g69
sa(dp2286
g4
g72
sg6
g9
sa(dp2287
g4
g72
sg6
g81
sa(dp2288
g4
g72
sg6
g83
sa(dp2289
g4
g72
sg6
g85
sa(dp2290
g4
g72
sg6
g87
sa(dp2291
g4
g72
sg6
g89
sa(dp2292
g4
g72
sg6
g91
sa(dp2293
g4
g72
sg6
g93
sa(dp2294
g4
g72
sg6
g95
sa(dp2295
g4
g72
sg6
g97
sa(dp2296
g4
g72
sg6
g99
sa(dp2297
g4
g72
sg6
g101
sa(dp2298
g4
g72
sg6
g103
sa(dp2299
g4
g72
sg6
g105
sa(dp2300
g4
g72
sg6
g107
sa(dp2301
g4
g72
sg6
g109
sa(dp2302
g4
g72
sg6
g38
sa(dp2303
g4
g72
sg6
g112
sa(dp2304
g4
g72
sg6
g34
sa(dp2305
g4
g72
sg6
g115
sa(dp2306
g4
g72
sg6
g117
sa(dp2307
g4
g72
sg6
g119
sa(dp2308
g4
g72
sg6
g121
sa(dp2309
g4
g72
sg6
g123
sa(dp2310
g4
g72
sg6
g125
sasg320
(lp2311
(dp2312
g4
g317
sg6
g318
sa(dp2313
g4
g317
sg6
g320
sa(dp2314
g4
g317
sg6
g322
sa(dp2315
g4
g317
sg6
g314
sa(dp2316
g4
g317
sg6
g325
sa(dp2317
g4
g317
sg6
g177
sa(dp2318
g4
g317
sg6
g328
sa(dp2319
g4
g317
sg6
g142
sa(dp2320
g4
g317
sg6
g331
sa(dp2321
g4
g317
sg6
g254
sa(dp2322
g4
g317
sg6
g334
sa(dp2323
g4
g317
sg6
g336
sa(dp2324
g4
g317
sg6
g338
sa(dp2325
g4
g317
sg6
g340
sa(dp2326
g4
g317
sg6
g342
sasg722
(lp2327
(dp2328
g4
g716
sg6
g136
sa(dp2329
g4
g716
sg6
g718
sa(dp2330
g4
g716
sg6
g720
sa(dp2331
g4
g716
sg6
g722
sa(dp2332
g4
g716
sg6
g724
sa(dp2333
g4
g716
sg6
g726
sa(dp2334
g4
g716
sg6
g235
sasg17
(lp2335
(dp2336
g4
g5
sg6
g7
sa(dp2337
g4
g5
sg6
g9
sa(dp2338
g4
g5
sg6
g11
sa(dp2339
g4
g5
sg6
g13
sa(dp2340
g4
g5
sg6
g15
sa(dp2341
g4
g5
sg6
g17
sa(dp2342
g4
g5
sg6
g19
sa(dp2343
g4
g5
sg6
g21
sa(dp2344
g4
g5
sg6
g23
sa(dp2345
g4
g5
sg6
g25
sa(dp2346
g4
g5
sg6
g27
sa(dp2347
g4
g5
sg6
g29
sa(dp2348
g4
g5
sg6
g1
sa(dp2349
g4
g5
sg6
g32
sa(dp2350
g4
g5
sg6
g34
sa(dp2351
g4
g5
sg6
g36
sa(dp2352
g4
g5
sg6
g38
sa(dp2353
g4
g5
sg6
g40
sa(dp2354
g4
g5
sg6
g42
sa(dp2355
g4
g5
sg6
g44
sa(dp2356
g4
g5
sg6
g46
sasg318
(lp2357
(dp2358
g4
g317
sg6
g318
sa(dp2359
g4
g317
sg6
g320
sa(dp2360
g4
g317
sg6
g322
sa(dp2361
g4
g317
sg6
g314
sa(dp2362
g4
g317
sg6
g325
sa(dp2363
g4
g317
sg6
g177
sa(dp2364
g4
g317
sg6
g328
sa(dp2365
g4
g317
sg6
g142
sa(dp2366
g4
g317
sg6
g331
sa(dp2367
g4
g317
sg6
g254
sa(dp2368
g4
g317
sg6
g334
sa(dp2369
g4
g317
sg6
g336
sa(dp2370
g4
g317
sg6
g338
sa(dp2371
g4
g317
sg6
g340
sa(dp2372
g4
g317
sg6
g342
sasg720
(lp2373
(dp2374
g4
g716
sg6
g136
sa(dp2375
g4
g716
sg6
g718
sa(dp2376
g4
g716
sg6
g720
sa(dp2377
g4
g716
sg6
g722
sa(dp2378
g4
g716
sg6
g724
sa(dp2379
g4
g716
sg6
g726
sa(dp2380
g4
g716
sg6
g235
sasg107
(lp2381
(dp2382
g4
g72
sg6
g73
sa(dp2383
g4
g72
sg6
g75
sa(dp2384
g4
g72
sg6
g77
sa(dp2385
g4
g72
sg6
g69
sa(dp2386
g4
g72
sg6
g9
sa(dp2387
g4
g72
sg6
g81
sa(dp2388
g4
g72
sg6
g83
sa(dp2389
g4
g72
sg6
g85
sa(dp2390
g4
g72
sg6
g87
sa(dp2391
g4
g72
sg6
g89
sa(dp2392
g4
g72
sg6
g91
sa(dp2393
g4
g72
sg6
g93
sa(dp2394
g4
g72
sg6
g95
sa(dp2395
g4
g72
sg6
g97
sa(dp2396
g4
g72
sg6
g99
sa(dp2397
g4
g72
sg6
g101
sa(dp2398
g4
g72
sg6
g103
sa(dp2399
g4
g72
sg6
g105
sa(dp2400
g4
g72
sg6
g107
sa(dp2401
g4
g72
sg6
g109
sa(dp2402
g4
g72
sg6
g38
sa(dp2403
g4
g72
sg6
g112
sa(dp2404
g4
g72
sg6
g34
sa(dp2405
g4
g72
sg6
g115
sa(dp2406
g4
g72
sg6
g117
sa(dp2407
g4
g72
sg6
g119
sa(dp2408
g4
g72
sg6
g121
sa(dp2409
g4
g72
sg6
g123
sa(dp2410
g4
g72
sg6
g125
sasg177
(lp2411
(dp2412
g4
g154
sg6
g155
sa(dp2413
g4
g154
sg6
g157
sa(dp2414
g4
g154
sg6
g159
sa(dp2415
g4
g154
sg6
g161
sa(dp2416
g4
g154
sg6
g163
sa(dp2417
g4
g154
sg6
g165
sa(dp2418
g4
g154
sg6
g167
sa(dp2419
g4
g154
sg6
g169
sa(dp2420
g4
g154
sg6
g128
sa(dp2421
g4
g154
sg6
g130
sa(dp2422
g4
g154
sg6
g132
sa(dp2423
g4
g154
sg6
g134
sa(dp2424
g4
g154
sg6
g136
sa(dp2425
g4
g154
sg6
g138
sa(dp2426
g4
g154
sg6
g177
sa(dp2427
g4
g154
sg6
g179
sa(dp2428
g4
g154
sg6
g181
sa(dp2429
g4
g154
sg6
g183
sa(dp2430
g4
g154
sg6
g7
sa(dp2431
g4
g154
sg6
g186
sa(dp2432
g4
g154
sg6
g81
sa(dp2433
g4
g317
sg6
g318
sa(dp2434
g4
g317
sg6
g320
sa(dp2435
g4
g317
sg6
g322
sa(dp2436
g4
g317
sg6
g314
sa(dp2437
g4
g317
sg6
g325
sa(dp2438
g4
g317
sg6
g177
sa(dp2439
g4
g317
sg6
g328
sa(dp2440
g4
g317
sg6
g142
sa(dp2441
g4
g317
sg6
g331
sa(dp2442
g4
g317
sg6
g254
sa(dp2443
g4
g317
sg6
g334
sa(dp2444
g4
g317
sg6
g336
sa(dp2445
g4
g317
sg6
g338
sa(dp2446
g4
g317
sg6
g340
sa(dp2447
g4
g317
sg6
g342
sasg29
(lp2448
(dp2449
g4
g5
sg6
g7
sa(dp2450
g4
g5
sg6
g9
sa(dp2451
g4
g5
sg6
g11
sa(dp2452
g4
g5
sg6
g13
sa(dp2453
g4
g5
sg6
g15
sa(dp2454
g4
g5
sg6
g17
sa(dp2455
g4
g5
sg6
g19
sa(dp2456
g4
g5
sg6
g21
sa(dp2457
g4
g5
sg6
g23
sa(dp2458
g4
g5
sg6
g25
sa(dp2459
g4
g5
sg6
g27
sa(dp2460
g4
g5
sg6
g29
sa(dp2461
g4
g5
sg6
g1
sa(dp2462
g4
g5
sg6
g32
sa(dp2463
g4
g5
sg6
g34
sa(dp2464
g4
g5
sg6
g36
sa(dp2465
g4
g5
sg6
g38
sa(dp2466
g4
g5
sg6
g40
sa(dp2467
g4
g5
sg6
g42
sa(dp2468
g4
g5
sg6
g44
sa(dp2469
g4
g5
sg6
g46
sasg46
(lp2470
(dp2471
g4
g5
sg6
g7
sa(dp2472
g4
g5
sg6
g9
sa(dp2473
g4
g5
sg6
g11
sa(dp2474
g4
g5
sg6
g13
sa(dp2475
g4
g5
sg6
g15
sa(dp2476
g4
g5
sg6
g17
sa(dp2477
g4
g5
sg6
g19
sa(dp2478
g4
g5
sg6
g21
sa(dp2479
g4
g5
sg6
g23
sa(dp2480
g4
g5
sg6
g25
sa(dp2481
g4
g5
sg6
g27
sa(dp2482
g4
g5
sg6
g29
sa(dp2483
g4
g5
sg6
g1
sa(dp2484
g4
g5
sg6
g32
sa(dp2485
g4
g5
sg6
g34
sa(dp2486
g4
g5
sg6
g36
sa(dp2487
g4
g5
sg6
g38
sa(dp2488
g4
g5
sg6
g40
sa(dp2489
g4
g5
sg6
g42
sa(dp2490
g4
g5
sg6
g44
sa(dp2491
g4
g5
sg6
g46
sasg235
(lp2492
(dp2493
g4
g234
sg6
g235
sa(dp2494
g4
g234
sg6
g237
sa(dp2495
g4
g234
sg6
g239
sa(dp2496
g4
g234
sg6
g241
sa(dp2497
g4
g234
sg6
g243
sa(dp2498
g4
g234
sg6
g245
sa(dp2499
g4
g234
sg6
g247
sa(dp2500
g4
g234
sg6
g249
sa(dp2501
g4
g234
sg6
g231
sa(dp2502
g4
g234
sg6
g252
sa(dp2503
g4
g234
sg6
g254
sa(dp2504
g4
g234
sg6
g256
sa(dp2505
g4
g234
sg6
g258
sa(dp2506
g4
g234
sg6
g260
sa(dp2507
g4
g234
sg6
g77
sa(dp2508
g4
g716
sg6
g136
sa(dp2509
g4
g716
sg6
g718
sa(dp2510
g4
g716
sg6
g720
sa(dp2511
g4
g716
sg6
g722
sa(dp2512
g4
g716
sg6
g724
sa(dp2513
g4
g716
sg6
g726
sa(dp2514
g4
g716
sg6
g235
sasg322
(lp2515
(dp2516
g4
g317
sg6
g318
sa(dp2517
g4
g317
sg6
g320
sa(dp2518
g4
g317
sg6
g322
sa(dp2519
g4
g317
sg6
g314
sa(dp2520
g4
g317
sg6
g325
sa(dp2521
g4
g317
sg6
g177
sa(dp2522
g4
g317
sg6
g328
sa(dp2523
g4
g317
sg6
g142
sa(dp2524
g4
g317
sg6
g331
sa(dp2525
g4
g317
sg6
g254
sa(dp2526
g4
g317
sg6
g334
sa(dp2527
g4
g317
sg6
g336
sa(dp2528
g4
g317
sg6
g338
sa(dp2529
g4
g317
sg6
g340
sa(dp2530
g4
g317
sg6
g342
sasg252
(lp2531
(dp2532
g4
g234
sg6
g235
sa(dp2533
g4
g234
sg6
g237
sa(dp2534
g4
g234
sg6
g239
sa(dp2535
g4
g234
sg6
g241
sa(dp2536
g4
g234
sg6
g243
sa(dp2537
g4
g234
sg6
g245
sa(dp2538
g4
g234
sg6
g247
sa(dp2539
g4
g234
sg6
g249
sa(dp2540
g4
g234
sg6
g231
sa(dp2541
g4
g234
sg6
g252
sa(dp2542
g4
g234
sg6
g254
sa(dp2543
g4
g234
sg6
g256
sa(dp2544
g4
g234
sg6
g258
sa(dp2545
g4
g234
sg6
g260
sa(dp2546
g4
g234
sg6
g77
sasg112
(lp2547
(dp2548
g4
g72
sg6
g73
sa(dp2549
g4
g72
sg6
g75
sa(dp2550
g4
g72
sg6
g77
sa(dp2551
g4
g72
sg6
g69
sa(dp2552
g4
g72
sg6
g9
sa(dp2553
g4
g72
sg6
g81
sa(dp2554
g4
g72
sg6
g83
sa(dp2555
g4
g72
sg6
g85
sa(dp2556
g4
g72
sg6
g87
sa(dp2557
g4
g72
sg6
g89
sa(dp2558
g4
g72
sg6
g91
sa(dp2559
g4
g72
sg6
g93
sa(dp2560
g4
g72
sg6
g95
sa(dp2561
g4
g72
sg6
g97
sa(dp2562
g4
g72
sg6
g99
sa(dp2563
g4
g72
sg6
g101
sa(dp2564
g4
g72
sg6
g103
sa(dp2565
g4
g72
sg6
g105
sa(dp2566
g4
g72
sg6
g107
sa(dp2567
g4
g72
sg6
g109
sa(dp2568
g4
g72
sg6
g38
sa(dp2569
g4
g72
sg6
g112
sa(dp2570
g4
g72
sg6
g34
sa(dp2571
g4
g72
sg6
g115
sa(dp2572
g4
g72
sg6
g117
sa(dp2573
g4
g72
sg6
g119
sa(dp2574
g4
g72
sg6
g121
sa(dp2575
g4
g72
sg6
g123
sa(dp2576
g4
g72
sg6
g125
sasg75
(lp2577
(dp2578
g4
g72
sg6
g73
sa(dp2579
g4
g72
sg6
g75
sa(dp2580
g4
g72
sg6
g77
sa(dp2581
g4
g72
sg6
g69
sa(dp2582
g4
g72
sg6
g9
sa(dp2583
g4
g72
sg6
g81
sa(dp2584
g4
g72
sg6
g83
sa(dp2585
g4
g72
sg6
g85
sa(dp2586
g4
g72
sg6
g87
sa(dp2587
g4
g72
sg6
g89
sa(dp2588
g4
g72
sg6
g91
sa(dp2589
g4
g72
sg6
g93
sa(dp2590
g4
g72
sg6
g95
sa(dp2591
g4
g72
sg6
g97
sa(dp2592
g4
g72
sg6
g99
sa(dp2593
g4
g72
sg6
g101
sa(dp2594
g4
g72
sg6
g103
sa(dp2595
g4
g72
sg6
g105
sa(dp2596
g4
g72
sg6
g107
sa(dp2597
g4
g72
sg6
g109
sa(dp2598
g4
g72
sg6
g38
sa(dp2599
g4
g72
sg6
g112
sa(dp2600
g4
g72
sg6
g34
sa(dp2601
g4
g72
sg6
g115
sa(dp2602
g4
g72
sg6
g117
sa(dp2603
g4
g72
sg6
g119
sa(dp2604
g4
g72
sg6
g121
sa(dp2605
g4
g72
sg6
g123
sa(dp2606
g4
g72
sg6
g125
sas.